------- FILE DeathPongTest.bas.asm LEVEL 1 PASS 3
      1  10000 ????						; Provided under the CC0 license. See the included LICENSE.txt for details.
      2  10000 ????
      3  10000 ????				       processor	6502
------- FILE vcs.h LEVEL 2 PASS 3
      0  10000 ????				       include	"vcs.h"
      1  10000 ????						; Provided under the CC0 license. See the included LICENSE.txt for details.
      2  10000 ????
      3  10000 ????						; VCS.H
      4  10000 ????						; Version 1.05, 13/November/2003
      5  10000 ????
      6  10000 ????		00 69	    VERSION_VCS =	105
      7  10000 ????
      8  10000 ????						; THIS IS A PRELIMINARY RELEASE OF *THE* "STANDARD" VCS.H
      9  10000 ????						; THIS FILE IS EXPLICITLY SUPPORTED AS A DASM-PREFERRED COMPANION FILE
     10  10000 ????						; PLEASE DO *NOT* REDISTRIBUTE THIS FILE!
     11  10000 ????						;
     12  10000 ????						; This file defines hardware registers and memory mapping for the
     13  10000 ????						; Atari 2600. It is distributed as a companion machine-specific support package
     14  10000 ????						; for the DASM compiler. Updates to this file, DASM, and associated tools are
     15  10000 ????						; available at at http://www.atari2600.org/dasm
     16  10000 ????						;
     17  10000 ????						; Many thanks to the original author(s) of this file, and to everyone who has
     18  10000 ????						; contributed to understanding the Atari 2600.  If you take issue with the
     19  10000 ????						; contents, or naming of registers, please write to me (atari2600@taswegian.com)
     20  10000 ????						; with your views.  Please contribute, if you think you can improve this
     21  10000 ????						; file!
     22  10000 ????						;
     23  10000 ????						; Latest Revisions...
     24  10000 ????						; 1.05  13/NOV/2003	  - Correction to 1.04 - now functions as requested by MR.
     25  10000 ????						;			  - Added VERSION_VCS equate (which will reflect 100x version #)
     26  10000 ????						;			    This will allow conditional code to verify VCS.H being
     27  10000 ????						;			    used for code assembly.
     28  10000 ????						; 1.04  12/NOV/2003	 Added TIA_BASE_WRITE_ADDRESS and TIA_BASE_READ_ADDRESS for
     29  10000 ????						;			 convenient disassembly/reassembly compatibility for hardware
     30  10000 ????						;			 mirrored reading/writing differences.	This is more a
     31  10000 ????						;			 readability issue, and binary compatibility with disassembled
     32  10000 ????						;			 and reassembled sources.  Per Manuel Rotschkar's suggestion.
     33  10000 ????						; 1.03  12/MAY/2003	 Added SEG segment at end of file to fix old-code compatibility
     34  10000 ????						;			 which was broken by the use of segments in this file, as
     35  10000 ????						;			 reported by Manuel Polik on [stella] 11/MAY/2003
     36  10000 ????						; 1.02  22/MAR/2003	 Added TIMINT($285)
     37  10000 ????						; 1.01				Constant offset added to allow use for 3F-style bankswitching
     38  10000 ????						;						 - define TIA_BASE_ADDRESS as $40 for Tigervision carts, otherwise
     39  10000 ????						;						   it is safe to leave it undefined, and the base address will
     40  10000 ????						;						   be set to 0.  Thanks to Eckhard Stolberg for the suggestion.
     41  10000 ????						;			    Note, may use -DLABEL=EXPRESSION to define TIA_BASE_ADDRESS
     42  10000 ????						;			  - register definitions are now generated through assignment
     43  10000 ????						;			    in uninitialised segments.	This allows a changeable base
     44  10000 ????						;			    address architecture.
     45  10000 ????						; 1.0	22/MAR/2003		Initial release
     46  10000 ????
     47  10000 ????
     48  10000 ????						;-------------------------------------------------------------------------------
     49  10000 ????
     50  10000 ????						; TIA_BASE_ADDRESS
     51  10000 ????						; The TIA_BASE_ADDRESS defines the base address of access to TIA registers.
     52  10000 ????						; Normally 0, the base address should (externally, before including this file)
     53  10000 ????						; be set to $40 when creating 3F-bankswitched (and other?) cartridges.
     54  10000 ????						; The reason is that this bankswitching scheme treats any access to locations
     55  10000 ????						; < $40 as a bankswitch.
     56  10000 ????
     57  10000 ????			   -	       IFNCONST	TIA_BASE_ADDRESS
     58  10000 ????			   -TIA_BASE_ADDRESS =	0
     59  10000 ????				       ENDIF
     60  10000 ????
     61  10000 ????						; Note: The address may be defined on the command-line using the -D switch, eg:
     62  10000 ????						; dasm.exe code.asm -DTIA_BASE_ADDRESS=$40 -f3 -v5 -ocode.bin
     63  10000 ????						; *OR* by declaring the label before including this file, eg:
     64  10000 ????						; TIA_BASE_ADDRESS = $40
     65  10000 ????						;   include "vcs.h"
     66  10000 ????
     67  10000 ????						; Alternate read/write address capability - allows for some disassembly compatibility
     68  10000 ????						; usage ; to allow reassembly to binary perfect copies).  This is essentially catering
     69  10000 ????						; for the mirrored ROM hardware registers.
     70  10000 ????
     71  10000 ????						; Usage: As per above, define the TIA_BASE_READ_ADDRESS and/or TIA_BASE_WRITE_ADDRESS
     72  10000 ????						; using the -D command-line switch, as required.  If the addresses are not defined,
     73  10000 ????						; they defaut to the TIA_BASE_ADDRESS.
     74  10000 ????
     75  10000 ????			   -	       IFNCONST	TIA_BASE_READ_ADDRESS
     76  10000 ????			   -TIA_BASE_READ_ADDRESS =	TIA_BASE_ADDRESS
     77  10000 ????				       ENDIF
     78  10000 ????
     79  10000 ????			   -	       IFNCONST	TIA_BASE_WRITE_ADDRESS
     80  10000 ????			   -TIA_BASE_WRITE_ADDRESS =	TIA_BASE_ADDRESS
     81  10000 ????				       ENDIF
     82  10000 ????
     83  10000 ????						;-------------------------------------------------------------------------------
     84  10000 ????
     85 U002d ????				      SEG.U	TIA_REGISTERS_WRITE
     86 U0000					      ORG	TIA_BASE_WRITE_ADDRESS
     87 U0000
     88 U0000							; DO NOT CHANGE THE RELATIVE ORDERING OF REGISTERS!
     89 U0000
     90 U0000		       00	   VSYNC      ds	1	; $00	 0000 00x0   Vertical Sync Set-Clear
     91 U0001		       00	   VBLANK     ds	1	; $01	 xx00 00x0   Vertical Blank Set-Clear
     92 U0002		       00	   WSYNC      ds	1	; $02	 ---- ----   Wait for Horizontal Blank
     93 U0003		       00	   RSYNC      ds	1	; $03	 ---- ----   Reset Horizontal Sync Counter
     94 U0004		       00	   NUSIZ0     ds	1	; $04	 00xx 0xxx   Number-Size player/missle 0
     95 U0005		       00	   NUSIZ1     ds	1	; $05	 00xx 0xxx   Number-Size player/missle 1
     96 U0006		       00	   COLUP0     ds	1	; $06	 xxxx xxx0   Color-Luminance Player 0
     97 U0007		       00	   COLUP1     ds	1	; $07	 xxxx xxx0   Color-Luminance Player 1
     98 U0008		       00	   COLUPF     ds	1	; $08	 xxxx xxx0   Color-Luminance Playfield
     99 U0009		       00	   COLUBK     ds	1	; $09	 xxxx xxx0   Color-Luminance Background
    100 U000a		       00	   CTRLPF     ds	1	; $0A	 00xx 0xxx   Control Playfield, Ball, Collisions
    101 U000b		       00	   REFP0      ds	1	; $0B	 0000 x000   Reflection Player 0
    102 U000c		       00	   REFP1      ds	1	; $0C	 0000 x000   Reflection Player 1
    103 U000d		       00	   PF0	      ds	1	; $0D	 xxxx 0000   Playfield Register Byte 0
    104 U000e		       00	   PF1	      ds	1	; $0E	 xxxx xxxx   Playfield Register Byte 1
    105 U000f		       00	   PF2	      ds	1	; $0F	 xxxx xxxx   Playfield Register Byte 2
    106 U0010		       00	   RESP0      ds	1	; $10	 ---- ----   Reset Player 0
    107 U0011		       00	   RESP1      ds	1	; $11	 ---- ----   Reset Player 1
    108 U0012		       00	   RESM0      ds	1	; $12	 ---- ----   Reset Missle 0
    109 U0013		       00	   RESM1      ds	1	; $13	 ---- ----   Reset Missle 1
    110 U0014		       00	   RESBL      ds	1	; $14	 ---- ----   Reset Ball
    111 U0015		       00	   AUDC0      ds	1	; $15	 0000 xxxx   Audio Control 0
    112 U0016		       00	   AUDC1      ds	1	; $16	 0000 xxxx   Audio Control 1
    113 U0017		       00	   AUDF0      ds	1	; $17	 000x xxxx   Audio Frequency 0
    114 U0018		       00	   AUDF1      ds	1	; $18	 000x xxxx   Audio Frequency 1
    115 U0019		       00	   AUDV0      ds	1	; $19	 0000 xxxx   Audio Volume 0
    116 U001a		       00	   AUDV1      ds	1	; $1A	 0000 xxxx   Audio Volume 1
    117 U001b		       00	   GRP0       ds	1	; $1B	 xxxx xxxx   Graphics Register Player 0
    118 U001c		       00	   GRP1       ds	1	; $1C	 xxxx xxxx   Graphics Register Player 1
    119 U001d		       00	   ENAM0      ds	1	; $1D	 0000 00x0   Graphics Enable Missle 0
    120 U001e		       00	   ENAM1      ds	1	; $1E	 0000 00x0   Graphics Enable Missle 1
    121 U001f		       00	   ENABL      ds	1	; $1F	 0000 00x0   Graphics Enable Ball
    122 U0020		       00	   HMP0       ds	1	; $20	 xxxx 0000   Horizontal Motion Player 0
    123 U0021		       00	   HMP1       ds	1	; $21	 xxxx 0000   Horizontal Motion Player 1
    124 U0022		       00	   HMM0       ds	1	; $22	 xxxx 0000   Horizontal Motion Missle 0
    125 U0023		       00	   HMM1       ds	1	; $23	 xxxx 0000   Horizontal Motion Missle 1
    126 U0024		       00	   HMBL       ds	1	; $24	 xxxx 0000   Horizontal Motion Ball
    127 U0025		       00	   VDELP0     ds	1	; $25	 0000 000x   Vertical Delay Player 0
    128 U0026		       00	   VDELP1     ds	1	; $26	 0000 000x   Vertical Delay Player 1
    129 U0027		       00	   VDELBL     ds	1	; $27	 0000 000x   Vertical Delay Ball
    130 U0028		       00	   RESMP0     ds	1	; $28	 0000 00x0   Reset Missle 0 to Player 0
    131 U0029		       00	   RESMP1     ds	1	; $29	 0000 00x0   Reset Missle 1 to Player 1
    132 U002a		       00	   HMOVE      ds	1	; $2A	 ---- ----   Apply Horizontal Motion
    133 U002b		       00	   HMCLR      ds	1	; $2B	 ---- ----   Clear Horizontal Move Registers
    134 U002c		       00	   CXCLR      ds	1	; $2C	 ---- ----   Clear Collision Latches
    135 U002d
    136 U002d							;-------------------------------------------------------------------------------
    137 U002d
    138 U0010 ????				      SEG.U	TIA_REGISTERS_READ
    139 U0000					      ORG	TIA_BASE_READ_ADDRESS
    140 U0000
    141 U0000							;											bit 7	 bit 6
    142 U0000		       00	   CXM0P      ds	1	; $00	     xx00 0000	     Read Collision  M0-P1   M0-P0
    143 U0001		       00	   CXM1P      ds	1	; $01	     xx00 0000			     M1-P0   M1-P1
    144 U0002		       00	   CXP0FB     ds	1	; $02	     xx00 0000			     P0-PF   P0-BL
    145 U0003		       00	   CXP1FB     ds	1	; $03	     xx00 0000			     P1-PF   P1-BL
    146 U0004		       00	   CXM0FB     ds	1	; $04	     xx00 0000			     M0-PF   M0-BL
    147 U0005		       00	   CXM1FB     ds	1	; $05	     xx00 0000			     M1-PF   M1-BL
    148 U0006		       00	   CXBLPF     ds	1	; $06	     x000 0000			     BL-PF   -----
    149 U0007		       00	   CXPPMM     ds	1	; $07	     xx00 0000			     P0-P1   M0-M1
    150 U0008		       00	   INPT0      ds	1	; $08	     x000 0000	     Read Pot Port 0
    151 U0009		       00	   INPT1      ds	1	; $09	     x000 0000	     Read Pot Port 1
    152 U000a		       00	   INPT2      ds	1	; $0A	     x000 0000	     Read Pot Port 2
    153 U000b		       00	   INPT3      ds	1	; $0B	     x000 0000	     Read Pot Port 3
    154 U000c		       00	   INPT4      ds	1	; $0C		x000 0000	 Read Input (Trigger) 0
    155 U000d		       00	   INPT5      ds	1	; $0D		x000 0000	 Read Input (Trigger) 1
    156 U000e
    157 U000e							;Used by PXE for Quadtari support
    158 U000e		       00	   INPT6      ds	1	; $0E		x000 0000	 Read Input (Trigger) 2
    159 U000f		       00	   INPT7      ds	1	; $0F		x000 0000	 Read Input (Trigger) 3
    160 U0010
    161 U0010							;-------------------------------------------------------------------------------
    162 U0010
    163 U0298 ????				      SEG.U	RIOT
    164 U0280					      ORG	$280
    165 U0280
    166 U0280							; RIOT MEMORY MAP
    167 U0280
    168 U0280		       00	   SWCHA      ds	1	; $280      Port A data register for joysticks:
    169 U0281							;			Bits 4-7 for player 1.  Bits 0-3 for player 2.
    170 U0281
    171 U0281		       00	   SWACNT     ds	1	; $281      Port A data direction register (DDR)
    172 U0282		       00	   SWCHB      ds	1	; $282		Port B data (console switches)
    173 U0283		       00	   SWBCNT     ds	1	; $283      Port B DDR
    174 U0284		       00	   INTIM      ds	1	; $284		Timer output
    175 U0285
    176 U0285		       00	   TIMINT     ds	1	; $285
    177 U0286
    178 U0286		       00	   SWCHA2     ds	1	; $286		Used by PXE for Quadtari support
    179 U0287
    180 U0287							; Unused/undefined registers ($287-$294)
    181 U0287		       00		      ds	1	; $287
    182 U0288		       00		      ds	1	; $288
    183 U0289		       00		      ds	1	; $289
    184 U028a		       00		      ds	1	; $28A
    185 U028b		       00		      ds	1	; $28B
    186 U028c		       00		      ds	1	; $28C
    187 U028d		       00		      ds	1	; $28D
    188 U028e		       00		      ds	1	; $28E
    189 U028f		       00		      ds	1	; $28F
    190 U0290		       00		      ds	1	; $290
    191 U0291		       00		      ds	1	; $291
    192 U0292		       00		      ds	1	; $292
    193 U0293		       00		      ds	1	; $293
    194 U0294
    195 U0294		       00	   TIM1T      ds	1	; $294		set 1 clock interval
    196 U0295		       00	   TIM8T      ds	1	; $295      set 8 clock interval
    197 U0296		       00	   TIM64T     ds	1	; $296      set 64 clock interval
    198 U0297		       00	   T1024T     ds	1	; $297      set 1024 clock interval
    199 U0298
    200 U0298							;-------------------------------------------------------------------------------
    201 U0298							; The following required for back-compatibility with code which does not use
    202 U0298							; segments.
    203 U0298
    204  10000 ????				       SEG
    205  10000 ????
    206  10000 ????						; EOF
------- FILE DeathPongTest.bas.asm
------- FILE macro.h LEVEL 2 PASS 3
      0  10000 ????				       include	"macro.h"
      1  10000 ????						; Provided under the CC0 license. See the included LICENSE.txt for details.
      2  10000 ????
      3  10000 ????						; MACRO.H
      4  10000 ????						; Version 1.05, 13/NOVEMBER/2003
      5  10000 ????
      6  10000 ????		00 69	    VERSION_MACRO =	105
      7  10000 ????
      8  10000 ????						;
      9  10000 ????						; THIS FILE IS EXPLICITLY SUPPORTED AS A DASM-PREFERRED COMPANION FILE
     10  10000 ????						; PLEASE DO *NOT* REDISTRIBUTE MODIFIED VERSIONS OF THIS FILE!
     11  10000 ????						;
     12  10000 ????						; This file defines DASM macros useful for development for the Atari 2600.
     13  10000 ????						; It is distributed as a companion machine-specific support package
     14  10000 ????						; for the DASM compiler. Updates to this file, DASM, and associated tools are
     15  10000 ????						; available at at http://www.atari2600.org/dasm
     16  10000 ????						;
     17  10000 ????						; Many thanks to the people who have contributed.  If you take issue with the
     18  10000 ????						; contents, or would like to add something, please write to me
     19  10000 ????						; (atari2600@taswegian.com) with your contribution.
     20  10000 ????						;
     21  10000 ????						; Latest Revisions...
     22  10000 ????						;
     23  10000 ????						; 1.05  14/NOV/2003	  - Added VERSION_MACRO equate (which will reflect 100x version #)
     24  10000 ????						;			    This will allow conditional code to verify MACRO.H being
     25  10000 ????						;			    used for code assembly.
     26  10000 ????						; 1.04  13/NOV/2003	 - SET_POINTER macro added (16-bit address load)
     27  10000 ????						;
     28  10000 ????						; 1.03  23/JUN/2003	 - CLEAN_START macro added - clears TIA, RAM, registers
     29  10000 ????						;
     30  10000 ????						; 1.02  14/JUN/2003	 - VERTICAL_SYNC macro added
     31  10000 ????						;			   (standardised macro for vertical synch code)
     32  10000 ????						; 1.01  22/MAR/2003	 - SLEEP macro added.
     33  10000 ????						;			 - NO_ILLEGAL_OPCODES switch implemented
     34  10000 ????						; 1.0	22/MAR/2003		Initial release
     35  10000 ????
     36  10000 ????						; Note: These macros use illegal opcodes.  To disable illegal opcode usage,
     37  10000 ????						;   define the symbol NO_ILLEGAL_OPCODES (-DNO_ILLEGAL_OPCODES=1 on command-line).
     38  10000 ????						;   If you do not allow illegal opcode usage, you must include this file
     39  10000 ????						;   *after* including VCS.H (as the non-illegal opcodes access hardware
     40  10000 ????						;   registers and require them to be defined first).
     41  10000 ????
     42  10000 ????						; Available macros...
     43  10000 ????						;   SLEEP n		 - sleep for n cycles
     44  10000 ????						;   VERTICAL_SYNC	 - correct 3 scanline vertical synch code
     45  10000 ????						;   CLEAN_START	 - set machine to known state on startup
     46  10000 ????						;   SET_POINTER	 - load a 16-bit absolute to a 16-bit variable
     47  10000 ????
     48  10000 ????						;-------------------------------------------------------------------------------
     49  10000 ????						; SLEEP duration
     50  10000 ????						; Original author: Thomas Jentzsch
     51  10000 ????						; Inserts code which takes the specified number of cycles to execute.	This is
     52  10000 ????						; useful for code where precise timing is required.
     53  10000 ????						; ILLEGAL-OPCODE VERSION DOES NOT AFFECT FLAGS OR REGISTERS.
     54  10000 ????						; LEGAL OPCODE VERSION MAY AFFECT FLAGS
     55  10000 ????						; Uses illegal opcode (DASM 2.20.01 onwards).
     56  10000 ????
     57  10000 ????				       MAC	sleep
     58  10000 ????			    .CYCLES    SET	{1}
     59  10000 ????
     60  10000 ????				       IF	.CYCLES < 2
     61  10000 ????				       ECHO	"MACRO ERROR: 'SLEEP': Duration must be > 1"
     62  10000 ????				       ERR
     63  10000 ????				       ENDIF
     64  10000 ????
     65  10000 ????				       IF	.CYCLES & 1
     66  10000 ????				       IFNCONST	NO_ILLEGAL_OPCODES
     67  10000 ????				       nop	0
     68  10000 ????				       ELSE
     69  10000 ????				       bit	VSYNC
     70  10000 ????				       ENDIF
     71  10000 ????			    .CYCLES    SET	.CYCLES - 3
     72  10000 ????				       ENDIF
     73  10000 ????
     74  10000 ????				       REPEAT	.CYCLES / 2
     75  10000 ????				       nop
     76  10000 ????				       REPEND
     77  10000 ????				       ENDM		;usage: SLEEP n (n>1)
     78  10000 ????
     79  10000 ????						;-------------------------------------------------------------------------------
     80  10000 ????						; VERTICAL_SYNC
     81  10000 ????						; Original author: Manuel Polik
     82  10000 ????						; Inserts the code required for a proper 3 scannline
     83  10000 ????						; vertical sync sequence
     84  10000 ????						;
     85  10000 ????						; Note: Alters the accumulator
     86  10000 ????						;
     87  10000 ????						; IN:
     88  10000 ????						; OUT: A = 1
     89  10000 ????
     90  10000 ????				       MAC	vertical_sync
     91  10000 ????				       LDA	#$02	; A = VSYNC enable
     92  10000 ????				       STA	WSYNC	; Finish current line
     93  10000 ????				       STA	VSYNC	; Start vertical sync
     94  10000 ????				       STA	WSYNC	; 1st line vertical sync
     95  10000 ????				       STA	WSYNC	; 2nd line vertical sync
     96  10000 ????				       LSR		; A = VSYNC disable
     97  10000 ????				       STA	WSYNC	; 3rd line vertical sync
     98  10000 ????				       STA	VSYNC	; Stop vertical sync
     99  10000 ????				       ENDM
    100  10000 ????
    101  10000 ????						;-------------------------------------------------------------------------------
    102  10000 ????						; CLEAN_START
    103  10000 ????						; Original author: Andrew Davie
    104  10000 ????						; Standardised start-up code, clears stack, all TIA registers and RAM to 0
    105  10000 ????						; Sets stack pointer to $FF, and all registers to 0
    106  10000 ????						; Sets decimal mode off, sets interrupt flag (kind of un-necessary)
    107  10000 ????						; Use as very first section of code on boot (ie: at reset)
    108  10000 ????						; Code written to minimise total ROM usage - uses weird 6502 knowledge :)
    109  10000 ????
    110  10000 ????				       MAC	clean_start
    111  10000 ????				       sei
    112  10000 ????				       cld
    113  10000 ????
    114  10000 ????				       ldx	#0
    115  10000 ????				       txa
    116  10000 ????				       tay
    117  10000 ????			    .CLEAR_STACK dex
    118  10000 ????				       txs
    119  10000 ????				       pha
    120  10000 ????				       bne	.CLEAR_STACK	; SP=$FF, X = A = Y = 0
    121  10000 ????
    122  10000 ????				       ENDM
    123  10000 ????
    124  10000 ????						;-------------------------------------------------------
    125  10000 ????						; SET_POINTER
    126  10000 ????						; Original author: Manuel Rotschkar
    127  10000 ????						;
    128  10000 ????						; Sets a 2 byte RAM pointer to an absolute address.
    129  10000 ????						;
    130  10000 ????						; Usage: SET_POINTER pointer, address
    131  10000 ????						; Example: SET_POINTER SpritePTR, SpriteData
    132  10000 ????						;
    133  10000 ????						; Note: Alters the accumulator, NZ flags
    134  10000 ????						; IN 1: 2 byte RAM location reserved for pointer
    135  10000 ????						; IN 2: absolute address
    136  10000 ????
    137  10000 ????				       MAC	set_pointer
    138  10000 ????			    .POINTER   SET	{1}
    139  10000 ????			    .ADDRESS   SET	{2}
    140  10000 ????
    141  10000 ????				       LDA	#<.ADDRESS	; Get Lowbyte of Address
    142  10000 ????				       STA	.POINTER	; Store in pointer
    143  10000 ????				       LDA	#>.ADDRESS	; Get Hibyte of Address
    144  10000 ????				       STA	.POINTER+1	; Store in pointer+1
    145  10000 ????
    146  10000 ????				       ENDM
    147  10000 ????
    148  10000 ????						; EOF
------- FILE DeathPongTest.bas.asm
------- FILE 2600basic.h LEVEL 2 PASS 3
      0  10000 ????				       include	"2600basic.h"
      1  10000 ????						; Provided under the CC0 license. See the included LICENSE.txt for details.
      2  10000 ????
      3  10000 ????				       processor	6502
------- FILE vcs.h LEVEL 3 PASS 3
      0  10000 ????				       include	"vcs.h"
      1  10000 ????						; Provided under the CC0 license. See the included LICENSE.txt for details.
      2  10000 ????
      3  10000 ????						; VCS.H
      4  10000 ????						; Version 1.05, 13/November/2003
      5  10000 ????
      6  10000 ????		00 69	    VERSION_VCS =	105
      7  10000 ????
      8  10000 ????						; THIS IS A PRELIMINARY RELEASE OF *THE* "STANDARD" VCS.H
      9  10000 ????						; THIS FILE IS EXPLICITLY SUPPORTED AS A DASM-PREFERRED COMPANION FILE
     10  10000 ????						; PLEASE DO *NOT* REDISTRIBUTE THIS FILE!
     11  10000 ????						;
     12  10000 ????						; This file defines hardware registers and memory mapping for the
     13  10000 ????						; Atari 2600. It is distributed as a companion machine-specific support package
     14  10000 ????						; for the DASM compiler. Updates to this file, DASM, and associated tools are
     15  10000 ????						; available at at http://www.atari2600.org/dasm
     16  10000 ????						;
     17  10000 ????						; Many thanks to the original author(s) of this file, and to everyone who has
     18  10000 ????						; contributed to understanding the Atari 2600.  If you take issue with the
     19  10000 ????						; contents, or naming of registers, please write to me (atari2600@taswegian.com)
     20  10000 ????						; with your views.  Please contribute, if you think you can improve this
     21  10000 ????						; file!
     22  10000 ????						;
     23  10000 ????						; Latest Revisions...
     24  10000 ????						; 1.05  13/NOV/2003	  - Correction to 1.04 - now functions as requested by MR.
     25  10000 ????						;			  - Added VERSION_VCS equate (which will reflect 100x version #)
     26  10000 ????						;			    This will allow conditional code to verify VCS.H being
     27  10000 ????						;			    used for code assembly.
     28  10000 ????						; 1.04  12/NOV/2003	 Added TIA_BASE_WRITE_ADDRESS and TIA_BASE_READ_ADDRESS for
     29  10000 ????						;			 convenient disassembly/reassembly compatibility for hardware
     30  10000 ????						;			 mirrored reading/writing differences.	This is more a
     31  10000 ????						;			 readability issue, and binary compatibility with disassembled
     32  10000 ????						;			 and reassembled sources.  Per Manuel Rotschkar's suggestion.
     33  10000 ????						; 1.03  12/MAY/2003	 Added SEG segment at end of file to fix old-code compatibility
     34  10000 ????						;			 which was broken by the use of segments in this file, as
     35  10000 ????						;			 reported by Manuel Polik on [stella] 11/MAY/2003
     36  10000 ????						; 1.02  22/MAR/2003	 Added TIMINT($285)
     37  10000 ????						; 1.01				Constant offset added to allow use for 3F-style bankswitching
     38  10000 ????						;						 - define TIA_BASE_ADDRESS as $40 for Tigervision carts, otherwise
     39  10000 ????						;						   it is safe to leave it undefined, and the base address will
     40  10000 ????						;						   be set to 0.  Thanks to Eckhard Stolberg for the suggestion.
     41  10000 ????						;			    Note, may use -DLABEL=EXPRESSION to define TIA_BASE_ADDRESS
     42  10000 ????						;			  - register definitions are now generated through assignment
     43  10000 ????						;			    in uninitialised segments.	This allows a changeable base
     44  10000 ????						;			    address architecture.
     45  10000 ????						; 1.0	22/MAR/2003		Initial release
     46  10000 ????
     47  10000 ????
     48  10000 ????						;-------------------------------------------------------------------------------
     49  10000 ????
     50  10000 ????						; TIA_BASE_ADDRESS
     51  10000 ????						; The TIA_BASE_ADDRESS defines the base address of access to TIA registers.
     52  10000 ????						; Normally 0, the base address should (externally, before including this file)
     53  10000 ????						; be set to $40 when creating 3F-bankswitched (and other?) cartridges.
     54  10000 ????						; The reason is that this bankswitching scheme treats any access to locations
     55  10000 ????						; < $40 as a bankswitch.
     56  10000 ????
     57  10000 ????			   -	       IFNCONST	TIA_BASE_ADDRESS
     58  10000 ????			   -TIA_BASE_ADDRESS =	0
     59  10000 ????				       ENDIF
     60  10000 ????
     61  10000 ????						; Note: The address may be defined on the command-line using the -D switch, eg:
     62  10000 ????						; dasm.exe code.asm -DTIA_BASE_ADDRESS=$40 -f3 -v5 -ocode.bin
     63  10000 ????						; *OR* by declaring the label before including this file, eg:
     64  10000 ????						; TIA_BASE_ADDRESS = $40
     65  10000 ????						;   include "vcs.h"
     66  10000 ????
     67  10000 ????						; Alternate read/write address capability - allows for some disassembly compatibility
     68  10000 ????						; usage ; to allow reassembly to binary perfect copies).  This is essentially catering
     69  10000 ????						; for the mirrored ROM hardware registers.
     70  10000 ????
     71  10000 ????						; Usage: As per above, define the TIA_BASE_READ_ADDRESS and/or TIA_BASE_WRITE_ADDRESS
     72  10000 ????						; using the -D command-line switch, as required.  If the addresses are not defined,
     73  10000 ????						; they defaut to the TIA_BASE_ADDRESS.
     74  10000 ????
     75  10000 ????			   -	       IFNCONST	TIA_BASE_READ_ADDRESS
     76  10000 ????			   -TIA_BASE_READ_ADDRESS =	TIA_BASE_ADDRESS
     77  10000 ????				       ENDIF
     78  10000 ????
     79  10000 ????			   -	       IFNCONST	TIA_BASE_WRITE_ADDRESS
     80  10000 ????			   -TIA_BASE_WRITE_ADDRESS =	TIA_BASE_ADDRESS
     81  10000 ????				       ENDIF
     82  10000 ????
     83  10000 ????						;-------------------------------------------------------------------------------
     84  10000 ????
     85 U002d					      SEG.U	TIA_REGISTERS_WRITE
     86 U0000					      ORG	TIA_BASE_WRITE_ADDRESS
     87 U0000
     88 U0000							; DO NOT CHANGE THE RELATIVE ORDERING OF REGISTERS!
     89 U0000
     90 U0000		       00	   VSYNC      ds	1	; $00	 0000 00x0   Vertical Sync Set-Clear
     91 U0001		       00	   VBLANK     ds	1	; $01	 xx00 00x0   Vertical Blank Set-Clear
     92 U0002		       00	   WSYNC      ds	1	; $02	 ---- ----   Wait for Horizontal Blank
     93 U0003		       00	   RSYNC      ds	1	; $03	 ---- ----   Reset Horizontal Sync Counter
     94 U0004		       00	   NUSIZ0     ds	1	; $04	 00xx 0xxx   Number-Size player/missle 0
     95 U0005		       00	   NUSIZ1     ds	1	; $05	 00xx 0xxx   Number-Size player/missle 1
     96 U0006		       00	   COLUP0     ds	1	; $06	 xxxx xxx0   Color-Luminance Player 0
     97 U0007		       00	   COLUP1     ds	1	; $07	 xxxx xxx0   Color-Luminance Player 1
     98 U0008		       00	   COLUPF     ds	1	; $08	 xxxx xxx0   Color-Luminance Playfield
     99 U0009		       00	   COLUBK     ds	1	; $09	 xxxx xxx0   Color-Luminance Background
    100 U000a		       00	   CTRLPF     ds	1	; $0A	 00xx 0xxx   Control Playfield, Ball, Collisions
    101 U000b		       00	   REFP0      ds	1	; $0B	 0000 x000   Reflection Player 0
    102 U000c		       00	   REFP1      ds	1	; $0C	 0000 x000   Reflection Player 1
    103 U000d		       00	   PF0	      ds	1	; $0D	 xxxx 0000   Playfield Register Byte 0
    104 U000e		       00	   PF1	      ds	1	; $0E	 xxxx xxxx   Playfield Register Byte 1
    105 U000f		       00	   PF2	      ds	1	; $0F	 xxxx xxxx   Playfield Register Byte 2
    106 U0010		       00	   RESP0      ds	1	; $10	 ---- ----   Reset Player 0
    107 U0011		       00	   RESP1      ds	1	; $11	 ---- ----   Reset Player 1
    108 U0012		       00	   RESM0      ds	1	; $12	 ---- ----   Reset Missle 0
    109 U0013		       00	   RESM1      ds	1	; $13	 ---- ----   Reset Missle 1
    110 U0014		       00	   RESBL      ds	1	; $14	 ---- ----   Reset Ball
    111 U0015		       00	   AUDC0      ds	1	; $15	 0000 xxxx   Audio Control 0
    112 U0016		       00	   AUDC1      ds	1	; $16	 0000 xxxx   Audio Control 1
    113 U0017		       00	   AUDF0      ds	1	; $17	 000x xxxx   Audio Frequency 0
    114 U0018		       00	   AUDF1      ds	1	; $18	 000x xxxx   Audio Frequency 1
    115 U0019		       00	   AUDV0      ds	1	; $19	 0000 xxxx   Audio Volume 0
    116 U001a		       00	   AUDV1      ds	1	; $1A	 0000 xxxx   Audio Volume 1
    117 U001b		       00	   GRP0       ds	1	; $1B	 xxxx xxxx   Graphics Register Player 0
    118 U001c		       00	   GRP1       ds	1	; $1C	 xxxx xxxx   Graphics Register Player 1
    119 U001d		       00	   ENAM0      ds	1	; $1D	 0000 00x0   Graphics Enable Missle 0
    120 U001e		       00	   ENAM1      ds	1	; $1E	 0000 00x0   Graphics Enable Missle 1
    121 U001f		       00	   ENABL      ds	1	; $1F	 0000 00x0   Graphics Enable Ball
    122 U0020		       00	   HMP0       ds	1	; $20	 xxxx 0000   Horizontal Motion Player 0
    123 U0021		       00	   HMP1       ds	1	; $21	 xxxx 0000   Horizontal Motion Player 1
    124 U0022		       00	   HMM0       ds	1	; $22	 xxxx 0000   Horizontal Motion Missle 0
    125 U0023		       00	   HMM1       ds	1	; $23	 xxxx 0000   Horizontal Motion Missle 1
    126 U0024		       00	   HMBL       ds	1	; $24	 xxxx 0000   Horizontal Motion Ball
    127 U0025		       00	   VDELP0     ds	1	; $25	 0000 000x   Vertical Delay Player 0
    128 U0026		       00	   VDELP1     ds	1	; $26	 0000 000x   Vertical Delay Player 1
    129 U0027		       00	   VDELBL     ds	1	; $27	 0000 000x   Vertical Delay Ball
    130 U0028		       00	   RESMP0     ds	1	; $28	 0000 00x0   Reset Missle 0 to Player 0
    131 U0029		       00	   RESMP1     ds	1	; $29	 0000 00x0   Reset Missle 1 to Player 1
    132 U002a		       00	   HMOVE      ds	1	; $2A	 ---- ----   Apply Horizontal Motion
    133 U002b		       00	   HMCLR      ds	1	; $2B	 ---- ----   Clear Horizontal Move Registers
    134 U002c		       00	   CXCLR      ds	1	; $2C	 ---- ----   Clear Collision Latches
    135 U002d
    136 U002d							;-------------------------------------------------------------------------------
    137 U002d
    138 U0010					      SEG.U	TIA_REGISTERS_READ
    139 U0000					      ORG	TIA_BASE_READ_ADDRESS
    140 U0000
    141 U0000							;											bit 7	 bit 6
    142 U0000		       00	   CXM0P      ds	1	; $00	     xx00 0000	     Read Collision  M0-P1   M0-P0
    143 U0001		       00	   CXM1P      ds	1	; $01	     xx00 0000			     M1-P0   M1-P1
    144 U0002		       00	   CXP0FB     ds	1	; $02	     xx00 0000			     P0-PF   P0-BL
    145 U0003		       00	   CXP1FB     ds	1	; $03	     xx00 0000			     P1-PF   P1-BL
    146 U0004		       00	   CXM0FB     ds	1	; $04	     xx00 0000			     M0-PF   M0-BL
    147 U0005		       00	   CXM1FB     ds	1	; $05	     xx00 0000			     M1-PF   M1-BL
    148 U0006		       00	   CXBLPF     ds	1	; $06	     x000 0000			     BL-PF   -----
    149 U0007		       00	   CXPPMM     ds	1	; $07	     xx00 0000			     P0-P1   M0-M1
    150 U0008		       00	   INPT0      ds	1	; $08	     x000 0000	     Read Pot Port 0
    151 U0009		       00	   INPT1      ds	1	; $09	     x000 0000	     Read Pot Port 1
    152 U000a		       00	   INPT2      ds	1	; $0A	     x000 0000	     Read Pot Port 2
    153 U000b		       00	   INPT3      ds	1	; $0B	     x000 0000	     Read Pot Port 3
    154 U000c		       00	   INPT4      ds	1	; $0C		x000 0000	 Read Input (Trigger) 0
    155 U000d		       00	   INPT5      ds	1	; $0D		x000 0000	 Read Input (Trigger) 1
    156 U000e
    157 U000e							;Used by PXE for Quadtari support
    158 U000e		       00	   INPT6      ds	1	; $0E		x000 0000	 Read Input (Trigger) 2
    159 U000f		       00	   INPT7      ds	1	; $0F		x000 0000	 Read Input (Trigger) 3
    160 U0010
    161 U0010							;-------------------------------------------------------------------------------
    162 U0010
    163 U0298					      SEG.U	RIOT
    164 U0280					      ORG	$280
    165 U0280
    166 U0280							; RIOT MEMORY MAP
    167 U0280
    168 U0280		       00	   SWCHA      ds	1	; $280      Port A data register for joysticks:
    169 U0281							;			Bits 4-7 for player 1.  Bits 0-3 for player 2.
    170 U0281
    171 U0281		       00	   SWACNT     ds	1	; $281      Port A data direction register (DDR)
    172 U0282		       00	   SWCHB      ds	1	; $282		Port B data (console switches)
    173 U0283		       00	   SWBCNT     ds	1	; $283      Port B DDR
    174 U0284		       00	   INTIM      ds	1	; $284		Timer output
    175 U0285
    176 U0285		       00	   TIMINT     ds	1	; $285
    177 U0286
    178 U0286		       00	   SWCHA2     ds	1	; $286		Used by PXE for Quadtari support
    179 U0287
    180 U0287							; Unused/undefined registers ($287-$294)
    181 U0287		       00		      ds	1	; $287
    182 U0288		       00		      ds	1	; $288
    183 U0289		       00		      ds	1	; $289
    184 U028a		       00		      ds	1	; $28A
    185 U028b		       00		      ds	1	; $28B
    186 U028c		       00		      ds	1	; $28C
    187 U028d		       00		      ds	1	; $28D
    188 U028e		       00		      ds	1	; $28E
    189 U028f		       00		      ds	1	; $28F
    190 U0290		       00		      ds	1	; $290
    191 U0291		       00		      ds	1	; $291
    192 U0292		       00		      ds	1	; $292
    193 U0293		       00		      ds	1	; $293
    194 U0294
    195 U0294		       00	   TIM1T      ds	1	; $294		set 1 clock interval
    196 U0295		       00	   TIM8T      ds	1	; $295      set 8 clock interval
    197 U0296		       00	   TIM64T     ds	1	; $296      set 64 clock interval
    198 U0297		       00	   T1024T     ds	1	; $297      set 1024 clock interval
    199 U0298
    200 U0298							;-------------------------------------------------------------------------------
    201 U0298							; The following required for back-compatibility with code which does not use
    202 U0298							; segments.
    203 U0298
    204  10000 ????				       SEG
    205  10000 ????
    206  10000 ????						; EOF
------- FILE 2600basic.h
------- FILE macro.h LEVEL 3 PASS 3
      0  10000 ????				       include	"macro.h"
      1  10000 ????						; Provided under the CC0 license. See the included LICENSE.txt for details.
      2  10000 ????
      3  10000 ????						; MACRO.H
      4  10000 ????						; Version 1.05, 13/NOVEMBER/2003
      5  10000 ????
      6  10000 ????		00 69	    VERSION_MACRO =	105
      7  10000 ????
      8  10000 ????						;
      9  10000 ????						; THIS FILE IS EXPLICITLY SUPPORTED AS A DASM-PREFERRED COMPANION FILE
     10  10000 ????						; PLEASE DO *NOT* REDISTRIBUTE MODIFIED VERSIONS OF THIS FILE!
     11  10000 ????						;
     12  10000 ????						; This file defines DASM macros useful for development for the Atari 2600.
     13  10000 ????						; It is distributed as a companion machine-specific support package
     14  10000 ????						; for the DASM compiler. Updates to this file, DASM, and associated tools are
     15  10000 ????						; available at at http://www.atari2600.org/dasm
     16  10000 ????						;
     17  10000 ????						; Many thanks to the people who have contributed.  If you take issue with the
     18  10000 ????						; contents, or would like to add something, please write to me
     19  10000 ????						; (atari2600@taswegian.com) with your contribution.
     20  10000 ????						;
     21  10000 ????						; Latest Revisions...
     22  10000 ????						;
     23  10000 ????						; 1.05  14/NOV/2003	  - Added VERSION_MACRO equate (which will reflect 100x version #)
     24  10000 ????						;			    This will allow conditional code to verify MACRO.H being
     25  10000 ????						;			    used for code assembly.
     26  10000 ????						; 1.04  13/NOV/2003	 - SET_POINTER macro added (16-bit address load)
     27  10000 ????						;
     28  10000 ????						; 1.03  23/JUN/2003	 - CLEAN_START macro added - clears TIA, RAM, registers
     29  10000 ????						;
     30  10000 ????						; 1.02  14/JUN/2003	 - VERTICAL_SYNC macro added
     31  10000 ????						;			   (standardised macro for vertical synch code)
     32  10000 ????						; 1.01  22/MAR/2003	 - SLEEP macro added.
     33  10000 ????						;			 - NO_ILLEGAL_OPCODES switch implemented
     34  10000 ????						; 1.0	22/MAR/2003		Initial release
     35  10000 ????
     36  10000 ????						; Note: These macros use illegal opcodes.  To disable illegal opcode usage,
     37  10000 ????						;   define the symbol NO_ILLEGAL_OPCODES (-DNO_ILLEGAL_OPCODES=1 on command-line).
     38  10000 ????						;   If you do not allow illegal opcode usage, you must include this file
     39  10000 ????						;   *after* including VCS.H (as the non-illegal opcodes access hardware
     40  10000 ????						;   registers and require them to be defined first).
     41  10000 ????
     42  10000 ????						; Available macros...
     43  10000 ????						;   SLEEP n		 - sleep for n cycles
     44  10000 ????						;   VERTICAL_SYNC	 - correct 3 scanline vertical synch code
     45  10000 ????						;   CLEAN_START	 - set machine to known state on startup
     46  10000 ????						;   SET_POINTER	 - load a 16-bit absolute to a 16-bit variable
     47  10000 ????
     48  10000 ????						;-------------------------------------------------------------------------------
     49  10000 ????						; SLEEP duration
     50  10000 ????						; Original author: Thomas Jentzsch
     51  10000 ????						; Inserts code which takes the specified number of cycles to execute.	This is
     52  10000 ????						; useful for code where precise timing is required.
     53  10000 ????						; ILLEGAL-OPCODE VERSION DOES NOT AFFECT FLAGS OR REGISTERS.
     54  10000 ????						; LEGAL OPCODE VERSION MAY AFFECT FLAGS
     55  10000 ????						; Uses illegal opcode (DASM 2.20.01 onwards).
     56  10000 ????
     57  10000 ????				       MAC	sleep
     58  10000 ????			    .CYCLES    SET	{1}
     59  10000 ????
     60  10000 ????				       IF	.CYCLES < 2
     61  10000 ????				       ECHO	"MACRO ERROR: 'SLEEP': Duration must be > 1"
     62  10000 ????				       ERR
     63  10000 ????				       ENDIF
     64  10000 ????
     65  10000 ????				       IF	.CYCLES & 1
     66  10000 ????				       IFNCONST	NO_ILLEGAL_OPCODES
     67  10000 ????				       nop	0
     68  10000 ????				       ELSE
     69  10000 ????				       bit	VSYNC
     70  10000 ????				       ENDIF
     71  10000 ????			    .CYCLES    SET	.CYCLES - 3
     72  10000 ????				       ENDIF
     73  10000 ????
     74  10000 ????				       REPEAT	.CYCLES / 2
     75  10000 ????				       nop
     76  10000 ????				       REPEND
     77  10000 ????				       ENDM		;usage: SLEEP n (n>1)
     78  10000 ????
     79  10000 ????						;-------------------------------------------------------------------------------
     80  10000 ????						; VERTICAL_SYNC
     81  10000 ????						; Original author: Manuel Polik
     82  10000 ????						; Inserts the code required for a proper 3 scannline
     83  10000 ????						; vertical sync sequence
     84  10000 ????						;
     85  10000 ????						; Note: Alters the accumulator
     86  10000 ????						;
     87  10000 ????						; IN:
     88  10000 ????						; OUT: A = 1
     89  10000 ????
     90  10000 ????				       MAC	vertical_sync
     91  10000 ????				       LDA	#$02	; A = VSYNC enable
     92  10000 ????				       STA	WSYNC	; Finish current line
     93  10000 ????				       STA	VSYNC	; Start vertical sync
     94  10000 ????				       STA	WSYNC	; 1st line vertical sync
     95  10000 ????				       STA	WSYNC	; 2nd line vertical sync
     96  10000 ????				       LSR		; A = VSYNC disable
     97  10000 ????				       STA	WSYNC	; 3rd line vertical sync
     98  10000 ????				       STA	VSYNC	; Stop vertical sync
     99  10000 ????				       ENDM
    100  10000 ????
    101  10000 ????						;-------------------------------------------------------------------------------
    102  10000 ????						; CLEAN_START
    103  10000 ????						; Original author: Andrew Davie
    104  10000 ????						; Standardised start-up code, clears stack, all TIA registers and RAM to 0
    105  10000 ????						; Sets stack pointer to $FF, and all registers to 0
    106  10000 ????						; Sets decimal mode off, sets interrupt flag (kind of un-necessary)
    107  10000 ????						; Use as very first section of code on boot (ie: at reset)
    108  10000 ????						; Code written to minimise total ROM usage - uses weird 6502 knowledge :)
    109  10000 ????
    110  10000 ????				       MAC	clean_start
    111  10000 ????				       sei
    112  10000 ????				       cld
    113  10000 ????
    114  10000 ????				       ldx	#0
    115  10000 ????				       txa
    116  10000 ????				       tay
    117  10000 ????			    .CLEAR_STACK dex
    118  10000 ????				       txs
    119  10000 ????				       pha
    120  10000 ????				       bne	.CLEAR_STACK	; SP=$FF, X = A = Y = 0
    121  10000 ????
    122  10000 ????				       ENDM
    123  10000 ????
    124  10000 ????						;-------------------------------------------------------
    125  10000 ????						; SET_POINTER
    126  10000 ????						; Original author: Manuel Rotschkar
    127  10000 ????						;
    128  10000 ????						; Sets a 2 byte RAM pointer to an absolute address.
    129  10000 ????						;
    130  10000 ????						; Usage: SET_POINTER pointer, address
    131  10000 ????						; Example: SET_POINTER SpritePTR, SpriteData
    132  10000 ????						;
    133  10000 ????						; Note: Alters the accumulator, NZ flags
    134  10000 ????						; IN 1: 2 byte RAM location reserved for pointer
    135  10000 ????						; IN 2: absolute address
    136  10000 ????
    137  10000 ????				       MAC	set_pointer
    138  10000 ????			    .POINTER   SET	{1}
    139  10000 ????			    .ADDRESS   SET	{2}
    140  10000 ????
    141  10000 ????				       LDA	#<.ADDRESS	; Get Lowbyte of Address
    142  10000 ????				       STA	.POINTER	; Store in pointer
    143  10000 ????				       LDA	#>.ADDRESS	; Get Hibyte of Address
    144  10000 ????				       STA	.POINTER+1	; Store in pointer+1
    145  10000 ????
    146  10000 ????				       ENDM
    147  10000 ????
    148  10000 ????						; EOF
------- FILE 2600basic.h
------- FILE 2600basic_variable_redefs.h LEVEL 3 PASS 3
      0  10000 ????				       include	"2600basic_variable_redefs.h"
      1  10000 ????						; This file contains variable mapping and other information for the current project.
      2  10000 ????
      3  10000 ????		00 01	    ball_speed_y =	1
      4  10000 ????
      5  10000 ????		00 01	    ball_speed_x =	1
      6  10000 ????
      7  10000 ????		00 e3	    _Bit1_Right_Selection =	p
      8  10000 ????
      9  10000 ????		00 e3	    _Bit0_Left_Selection =	p
     10  10000 ????
     11  10000 ????		00 03	    lives2     =	3
     12  10000 ????
     13  10000 ????		00 01	    pfscore    =	1
     14  10000 ????
     15  10000 ????		00 86	    _B_Edge_Right =	134
     16  10000 ????
     17  10000 ????		00 12	    _B_Edge_Left =	18
     18  10000 ????
     19  10000 ????		00 55	    _B_Edge_Bottom =	85
     20  10000 ????
     21  10000 ????		00 04	    _B_Edge_Top =	4
     22  10000 ????
     23  10000 ????		00 94	    _M_Edge_Right =	148
     24  10000 ????
     25  10000 ????		00 00	    _M_Edge_Left =	0
     26  10000 ????
     27  10000 ????		00 58	    _M_Edge_Bottom =	88
     28  10000 ????
     29  10000 ????		00 02	    _M_Edge_Top =	2
     30  10000 ????
     31  10000 ????		00 99	    _P_Edge_Right =	153
     32  10000 ????
     33  10000 ????		00 01	    _P_Edge_Left =	1
     34  10000 ????
     35  10000 ????		00 58	    _P_Edge_Bottom =	88
     36  10000 ????
     37  10000 ????		00 09	    _P_Edge_Top =	9
     38  10000 ????
     39  10000 ????		00 00	    lives_centered =	0
     40  10000 ????
     41  10000 ????		00 e3	    _Ball_Direction =	p
     42  10000 ????		00 89	    _Ball_Position_y =	bally
     43  10000 ????		00 84	    _Ball_Velocity =	ballx
     44  10000 ????		00 ed	    _Bit7_M1_Moving =	z
     45  10000 ????
     46  10000 ????		00 ec	    _Bit7_M0_Moving =	y
     47  10000 ????
     48  10000 ????		00 ec	    _Bit0_Reset_Restrainer =	y
     49  10000 ????
     50  10000 ????		00 de	    sound_duration =	k
     51  10000 ????
     52  10000 ????		00 00	    statusbarcolor =	$00
     53  10000 ????
     54  10000 ????		00 dd	    _Bit6_B_Direction_Y =	j
     55  10000 ????
     56  10000 ????		00 dd	    _Bit5_B_Direction_X =	j
     57  10000 ????
     58  10000 ????		00 db	    _Bit7_M1_Dir_Right =	h
     59  10000 ????
     60  10000 ????		00 db	    _Bit6_M1_Dir_Left =	h
     61  10000 ????
     62  10000 ????		00 db	    _Bit5_M1_Dir_Down =	h
     63  10000 ????
     64  10000 ????		00 db	    _Bit4_M1_Dir_Up =	h
     65  10000 ????
     66  10000 ????		00 db	    _Bit3_P1_Dir_Right =	h
     67  10000 ????
     68  10000 ????		00 db	    _Bit2_P1_Dir_Left =	h
     69  10000 ????
     70  10000 ????		00 db	    _Bit1_P1_Dir_Down =	h
     71  10000 ????
     72  10000 ????		00 db	    _Bit0_P1_Dir_Up =	h
     73  10000 ????
     74  10000 ????		00 da	    _Bit7_M0_Dir_Right =	g
     75  10000 ????
     76  10000 ????		00 da	    _Bit6_M0_Dir_Left =	g
     77  10000 ????
     78  10000 ????		00 da	    _Bit5_M0_Dir_Down =	g
     79  10000 ????
     80  10000 ????		00 da	    _Bit4_M0_Dir_Up =	g
     81  10000 ????
     82  10000 ????		00 da	    _Bit3_P0_Dir_Right =	g
     83  10000 ????
     84  10000 ????		00 da	    _Bit2_P0_Dir_Left =	g
     85  10000 ????
     86  10000 ????		00 da	    _Bit1_P0_Dir_Down =	g
     87  10000 ????
     88  10000 ????		00 da	    _Bit0_P0_Dir_Up =	g
     89  10000 ????
     90  10000 ????		00 db	    _BitOp_P1_M1_Dir =	h
     91  10000 ????
     92  10000 ????		00 da	    _BitOp_P0_M0_Dir =	g
     93  10000 ????
     94  10000 ????		00 ec	    _BitOp_01  =	y
     95  10000 ????
     96  10000 ????		00 01	    PFcolorandheight =	1
------- FILE 2600basic.h
      7  10000 ????
      8  10000 ????		00 80	    player0x   =	$80
      9  10000 ????		00 81	    player1x   =	$81
     10  10000 ????		00 82	    missile0x  =	$82
     11  10000 ????		00 83	    missile1x  =	$83
     12  10000 ????		00 84	    ballx      =	$84
     13  10000 ????
     14  10000 ????		00 85	    objecty    =	$85
     15  10000 ????		00 85	    player0y   =	$85
     16  10000 ????		00 86	    player1y   =	$86
     17  10000 ????		00 87	    missile1height =	$87
     18  10000 ????		00 88	    missile1y  =	$88
     19  10000 ????		00 89	    bally      =	$89
     20  10000 ????
     21  10000 ????		00 87	    player1color =	$87	; replaces missile 1
     22  10000 ????
     23  10000 ????		00 8a	    player0pointer =	$8A	;uses $8A-$8B
     24  10000 ????		00 8a	    player0pointerlo =	$8A
     25  10000 ????		00 8b	    player0pointerhi =	$8B
     26  10000 ????		00 8c	    player1pointer =	$8C	; $8C-$8D
     27  10000 ????		00 8c	    player1pointerlo =	$8C
     28  10000 ????		00 8d	    player1pointerhi =	$8D
     29  10000 ????
     30  10000 ????		00 8e	    player0height =	$8E
     31  10000 ????		00 8f	    player1height =	$8F
     32  10000 ????		00 90	    missile0height =	$90
     33  10000 ????		00 91	    missile0y  =	$91
     34  10000 ????		00 92	    ballheight =	$92
     35  10000 ????
     36  10000 ????		00 90	    currentpaddle =	$90	; replaces missile 0 (and can't be used with playercolor)
     37  10000 ????		00 91	    paddle     =	$91	; replaces missile 0
     38  10000 ????		00 82	    player0colorstore =	$82	; replaces missile 0
     39  10000 ????		00 90	    player0color =	$90	; replaces missile 0
     40  10000 ????
     41  10000 ????		00 93	    score      =	$93	; $93-$95
     42  10000 ????		00 96	    scorepointers =	$96	; $96-$9B = 6 bytes
     43  10000 ????		00 9c	    temp1      =	$9C	;used by kernel.  can be used in program too, but
     44  10000 ????		00 9d	    temp2      =	$9D	;are obliterated when drawscreen is called.
     45  10000 ????		00 9e	    temp3      =	$9E
     46  10000 ????		00 9f	    temp4      =	$9F
     47  10000 ????		00 a0	    temp5      =	$A0
     48  10000 ????		00 a1	    temp6      =	$A1
     49  10000 ????
     50  10000 ????		00 a2	    rand       =	$A2
     51  10000 ????		00 a3	    scorecolor =	$A3
     52  10000 ????
     53  10000 ????		00 a4	    var0       =	$A4
     54  10000 ????		00 a5	    var1       =	$A5
     55  10000 ????		00 a6	    var2       =	$A6
     56  10000 ????		00 a7	    var3       =	$A7
     57  10000 ????		00 a8	    var4       =	$A8
     58  10000 ????		00 a9	    var5       =	$A9
     59  10000 ????		00 aa	    var6       =	$AA
     60  10000 ????		00 ab	    var7       =	$AB
     61  10000 ????		00 ac	    var8       =	$AC
     62  10000 ????		00 ad	    var9       =	$AD
     63  10000 ????		00 ae	    var10      =	$AE
     64  10000 ????		00 af	    var11      =	$AF
     65  10000 ????		00 b0	    var12      =	$B0
     66  10000 ????		00 b1	    var13      =	$B1
     67  10000 ????		00 b2	    var14      =	$B2
     68  10000 ????		00 b3	    var15      =	$B3
     69  10000 ????		00 b4	    var16      =	$B4
     70  10000 ????		00 b5	    var17      =	$B5
     71  10000 ????		00 b6	    var18      =	$B6
     72  10000 ????		00 b7	    var19      =	$B7
     73  10000 ????		00 b8	    var20      =	$B8
     74  10000 ????		00 b9	    var21      =	$B9
     75  10000 ????		00 ba	    var22      =	$BA
     76  10000 ????		00 bb	    var23      =	$BB
     77  10000 ????		00 bc	    var24      =	$BC
     78  10000 ????		00 bd	    var25      =	$BD
     79  10000 ????		00 be	    var26      =	$BE
     80  10000 ????		00 bf	    var27      =	$BF
     81  10000 ????		00 c0	    var28      =	$C0
     82  10000 ????		00 c1	    var29      =	$C1
     83  10000 ????		00 c2	    var30      =	$C2
     84  10000 ????		00 c3	    var31      =	$C3
     85  10000 ????		00 c4	    var32      =	$C4
     86  10000 ????		00 c5	    var33      =	$C5
     87  10000 ????		00 c6	    var34      =	$C6
     88  10000 ????		00 c7	    var35      =	$C7
     89  10000 ????		00 c8	    var36      =	$C8
     90  10000 ????		00 c9	    var37      =	$C9
     91  10000 ????		00 ca	    var38      =	$CA
     92  10000 ????		00 cb	    var39      =	$CB
     93  10000 ????		00 cc	    var40      =	$CC
     94  10000 ????		00 cd	    var41      =	$CD
     95  10000 ????		00 ce	    var42      =	$CE
     96  10000 ????		00 cf	    var43      =	$CF
     97  10000 ????		00 d0	    var44      =	$D0
     98  10000 ????		00 d1	    var45      =	$D1
     99  10000 ????		00 d2	    var46      =	$D2
    100  10000 ????		00 d3	    var47      =	$D3
    101  10000 ????
    102  10000 ????		00 d4	    A	       =	$d4
    103  10000 ????		00 d4	    a	       =	$d4
    104  10000 ????		00 d5	    B	       =	$d5
    105  10000 ????		00 d5	    b	       =	$d5
    106  10000 ????		00 d6	    C	       =	$d6
    107  10000 ????		00 d6	    c	       =	$d6
    108  10000 ????		00 d7	    D	       =	$d7
    109  10000 ????		00 d7	    d	       =	$d7
    110  10000 ????		00 d8	    E	       =	$d8
    111  10000 ????		00 d8	    e	       =	$d8
    112  10000 ????		00 d9	    F	       =	$d9
    113  10000 ????		00 d9	    f	       =	$d9
    114  10000 ????		00 da	    G	       =	$da
    115  10000 ????		00 da	    g	       =	$da
    116  10000 ????		00 db	    H	       =	$db
    117  10000 ????		00 db	    h	       =	$db
    118  10000 ????		00 dc	    I	       =	$dc
    119  10000 ????		00 dc	    i	       =	$dc
    120  10000 ????		00 dd	    J	       =	$dd
    121  10000 ????		00 dd	    j	       =	$dd
    122  10000 ????		00 de	    K	       =	$de
    123  10000 ????		00 de	    k	       =	$de
    124  10000 ????		00 df	    L	       =	$df
    125  10000 ????		00 df	    l	       =	$df
    126  10000 ????		00 e0	    M	       =	$e0
    127  10000 ????		00 e0	    m	       =	$e0
    128  10000 ????		00 e1	    N	       =	$e1
    129  10000 ????		00 e1	    n	       =	$e1
    130  10000 ????		00 e2	    O	       =	$e2
    131  10000 ????		00 e2	    o	       =	$e2
    132  10000 ????		00 e3	    P	       =	$e3
    133  10000 ????		00 e3	    p	       =	$e3
    134  10000 ????		00 e4	    Q	       =	$e4
    135  10000 ????		00 e4	    q	       =	$e4
    136  10000 ????		00 e5	    R	       =	$e5
    137  10000 ????		00 e5	    r	       =	$e5
    138  10000 ????		00 e6	    S	       =	$e6
    139  10000 ????		00 e6	    s	       =	$e6
    140  10000 ????		00 e7	    T	       =	$e7
    141  10000 ????		00 e7	    t	       =	$e7
    142  10000 ????		00 e8	    U	       =	$e8
    143  10000 ????		00 e8	    u	       =	$e8
    144  10000 ????		00 e9	    V	       =	$e9
    145  10000 ????		00 e9	    v	       =	$e9
    146  10000 ????		00 ea	    W	       =	$ea
    147  10000 ????		00 ea	    w	       =	$ea
    148  10000 ????		00 eb	    X	       =	$eb
    149  10000 ????		00 eb	    x	       =	$eb
    150  10000 ????		00 ec	    Y	       =	$ec
    151  10000 ????		00 ec	    y	       =	$ec
    152  10000 ????		00 ed	    Z	       =	$ed
    153  10000 ????		00 ed	    z	       =	$ed
    154  10000 ????
    155  10000 ????		00 ee	    temp7      =	$ee	; This is used to aid in bankswitching
    156  10000 ????		00 ef	    playfieldpos =	$ef
    157  10000 ????
    158  10000 ????						; available for other uses, or if unused, provide more stack space
    159  10000 ????
    160  10000 ????		00 f0	    aux1       =	$f0
    161  10000 ????		00 f1	    aux2       =	$f1
    162  10000 ????		00 f2	    aux3       =	$f2
    163  10000 ????		00 f3	    aux4       =	$f3
    164  10000 ????		00 f4	    aux5       =	$f4
    165  10000 ????		00 f5	    aux6       =	$f5
    166  10000 ????
    167  10000 ????						; playfield color/height pointers
    168  10000 ????		00 f0	    pfcolortable =	$f0	; and $d5
    169  10000 ????		00 f0	    pfheighttable =	$f0	; and $d5
    170  10000 ????						; the above pointers are the same because if color and height are both used together,
    171  10000 ????						; they must used absolute indexed and cannot use pointers
    172  10000 ????
    173  10000 ????		00 f2	    lifepointer =	$f2	; pointer to "lives" shape
    174  10000 ????						; upper 3 bits of $f2 contain the number of lives
    175  10000 ????		00 f4	    lifecolor  =	$f4
    176  10000 ????		00 f3	    lives      =	$f3	; # lives >> 5
    177  10000 ????		00 f5	    statusbarlength =	$f5	; only uses upper 5 bits; other bits free
    178  10000 ????
    179  10000 ????		00 f2	    pfscore1   =	$f2	; optional playfield bytes in score
    180  10000 ????		00 f3	    pfscore2   =	$f3
    181  10000 ????		00 f4	    pfscorecolor =	$f4
    182  10000 ????
    183  10000 ????		00 f6	    stack1     =	$f6
    184  10000 ????		00 f7	    stack2     =	$f7
    185  10000 ????		00 f8	    stack3     =	$f8
    186  10000 ????		00 f9	    stack4     =	$f9
    187  10000 ????						; the stack bytes above may be used in the kernel
    188  10000 ????						; stack = F6-F7, F8-F9, FA-FB, FC-FD, FE-FF
    189  10000 ????
    190  10000 ????				       MAC	return
    191  10000 ????				       ifnconst	bankswitch
    192  10000 ????				       rts
    193  10000 ????				       else
    194  10000 ????				       jmp	BS_return
    195  10000 ????				       endif
    196  10000 ????				       ENDM		; auto-return from either a regular or bankswitched module
    197  10000 ????
    198  10000 ????			   -	       ifconst	superchip
    199  10000 ????			   -playfieldbase =	$10D0
    200  10000 ????			   -	       include	superchip.h
    201  10000 ????				       else
    202  10000 ????		00 a4	    playfieldbase =	$A4
    203  10000 ????				       endif
    204  10000 ????
    205  10000 ????				       ifnconst	pfhalfwidth
    206  10000 ????		00 04	    pfwidth    =	4
    207  10000 ????		00 0e	    PF1L       =	PF1
    208  10000 ????		00 0f	    PF2L       =	PF2
    209  10000 ????		00 0e	    PF1R       =	PF1
    210  10000 ????		00 0f	    PF2R       =	PF2
    211  10000 ????		00 00	    pfadjust   =	0
    212  10000 ????			   -	       else
    213  10000 ????			   -pfwidth    =	2
    214  10000 ????			   -	       ifconst	pfcenter
    215  10000 ????			   -PF1L       =	$3F	; no effect
    216  10000 ????			   -PF2L       =	PF2
    217  10000 ????			   -PF1R       =	$3F
    218  10000 ????			   -PF2R       =	PF2	; no effect
    219  10000 ????			   -pfadjust   =	1
    220  10000 ????			   -	       else
    221  10000 ????			   -PF1L       =	PF1
    222  10000 ????			   -PF2L       =	PF2
    223  10000 ????			   -PF1R       =	$3F	; no effect
    224  10000 ????			   -PF2R       =	$3F	; no effect
    225  10000 ????			   -pfadjust   =	0
    226  10000 ????			   -	       endif
    227  10000 ????				       endif
    228  10000 ????
    229  10000 ????						; define playfield start based on height
    230  10000 ????				       ifnconst	pfres
    231  10000 ????		00 a4	    playfield  =	playfieldbase
    232  10000 ????			   -	       else
    233  10000 ????			   -playfield  =	playfieldbase-(pfres-12*(4/pfwidth))*pfwidth
    234  10000 ????				       endif
------- FILE DeathPongTest.bas.asm
------- FILE 2600basic_variable_redefs.h LEVEL 2 PASS 3
      0  10000 ????				       include	"2600basic_variable_redefs.h"
      1  10000 ????						; This file contains variable mapping and other information for the current project.
      2  10000 ????
      3  10000 ????		00 01	    ball_speed_y =	1
      4  10000 ????
      5  10000 ????		00 01	    ball_speed_x =	1
      6  10000 ????
      7  10000 ????		00 e3	    _Bit1_Right_Selection =	p
      8  10000 ????
      9  10000 ????		00 e3	    _Bit0_Left_Selection =	p
     10  10000 ????
     11  10000 ????		00 03	    lives2     =	3
     12  10000 ????
     13  10000 ????		00 01	    pfscore    =	1
     14  10000 ????
     15  10000 ????		00 86	    _B_Edge_Right =	134
     16  10000 ????
     17  10000 ????		00 12	    _B_Edge_Left =	18
     18  10000 ????
     19  10000 ????		00 55	    _B_Edge_Bottom =	85
     20  10000 ????
     21  10000 ????		00 04	    _B_Edge_Top =	4
     22  10000 ????
     23  10000 ????		00 94	    _M_Edge_Right =	148
     24  10000 ????
     25  10000 ????		00 00	    _M_Edge_Left =	0
     26  10000 ????
     27  10000 ????		00 58	    _M_Edge_Bottom =	88
     28  10000 ????
     29  10000 ????		00 02	    _M_Edge_Top =	2
     30  10000 ????
     31  10000 ????		00 99	    _P_Edge_Right =	153
     32  10000 ????
     33  10000 ????		00 01	    _P_Edge_Left =	1
     34  10000 ????
     35  10000 ????		00 58	    _P_Edge_Bottom =	88
     36  10000 ????
     37  10000 ????		00 09	    _P_Edge_Top =	9
     38  10000 ????
     39  10000 ????		00 00	    lives_centered =	0
     40  10000 ????
     41  10000 ????		00 e3	    _Ball_Direction =	p
     42  10000 ????		00 89	    _Ball_Position_y =	bally
     43  10000 ????		00 84	    _Ball_Velocity =	ballx
     44  10000 ????		00 ed	    _Bit7_M1_Moving =	z
     45  10000 ????
     46  10000 ????		00 ec	    _Bit7_M0_Moving =	y
     47  10000 ????
     48  10000 ????		00 ec	    _Bit0_Reset_Restrainer =	y
     49  10000 ????
     50  10000 ????		00 de	    sound_duration =	k
     51  10000 ????
     52  10000 ????		00 00	    statusbarcolor =	$00
     53  10000 ????
     54  10000 ????		00 dd	    _Bit6_B_Direction_Y =	j
     55  10000 ????
     56  10000 ????		00 dd	    _Bit5_B_Direction_X =	j
     57  10000 ????
     58  10000 ????		00 db	    _Bit7_M1_Dir_Right =	h
     59  10000 ????
     60  10000 ????		00 db	    _Bit6_M1_Dir_Left =	h
     61  10000 ????
     62  10000 ????		00 db	    _Bit5_M1_Dir_Down =	h
     63  10000 ????
     64  10000 ????		00 db	    _Bit4_M1_Dir_Up =	h
     65  10000 ????
     66  10000 ????		00 db	    _Bit3_P1_Dir_Right =	h
     67  10000 ????
     68  10000 ????		00 db	    _Bit2_P1_Dir_Left =	h
     69  10000 ????
     70  10000 ????		00 db	    _Bit1_P1_Dir_Down =	h
     71  10000 ????
     72  10000 ????		00 db	    _Bit0_P1_Dir_Up =	h
     73  10000 ????
     74  10000 ????		00 da	    _Bit7_M0_Dir_Right =	g
     75  10000 ????
     76  10000 ????		00 da	    _Bit6_M0_Dir_Left =	g
     77  10000 ????
     78  10000 ????		00 da	    _Bit5_M0_Dir_Down =	g
     79  10000 ????
     80  10000 ????		00 da	    _Bit4_M0_Dir_Up =	g
     81  10000 ????
     82  10000 ????		00 da	    _Bit3_P0_Dir_Right =	g
     83  10000 ????
     84  10000 ????		00 da	    _Bit2_P0_Dir_Left =	g
     85  10000 ????
     86  10000 ????		00 da	    _Bit1_P0_Dir_Down =	g
     87  10000 ????
     88  10000 ????		00 da	    _Bit0_P0_Dir_Up =	g
     89  10000 ????
     90  10000 ????		00 db	    _BitOp_P1_M1_Dir =	h
     91  10000 ????
     92  10000 ????		00 da	    _BitOp_P0_M0_Dir =	g
     93  10000 ????
     94  10000 ????		00 ec	    _BitOp_01  =	y
     95  10000 ????
     96  10000 ????		00 01	    PFcolorandheight =	1
------- FILE DeathPongTest.bas.asm
      8  10000 ????			   -	       ifconst	bankswitch
      9  10000 ????			   -	       if	bankswitch == 8
     10  10000 ????			   -	       ORG	$1000
     11  10000 ????			   -	       RORG	$D000
     12  10000 ????			   -	       endif
     13  10000 ????			   -	       if	bankswitch == 16
     14  10000 ????			   -	       ORG	$1000
     15  10000 ????			   -	       RORG	$9000
     16  10000 ????			   -	       endif
     17  10000 ????			   -	       if	bankswitch == 32
     18  10000 ????			   -	       ORG	$1000
     19  10000 ????			   -	       RORG	$1000
     20  10000 ????			   -	       endif
     21  10000 ????			   -	       if	bankswitch == 64
     22  10000 ????			   -	       ORG	$1000
     23  10000 ????			   -	       RORG	$1000
     24  10000 ????			   -	       endif
     25  10000 ????				       else
     26  f000					      ORG	$F000
     27  f000					      endif
     28  f000
     29  f000				  -	      ifconst	bankswitch_hotspot
     30  f000				  -	      if	bankswitch_hotspot = $083F	; 0840 bankswitching hotspot
     31  f000				  -	      .byte	0	; stop unexpected bankswitches
     32  f000				  -	      endif
     33  f000					      endif
     34  f000							; Provided under the CC0 license. See the included LICENSE.txt for details.
     35  f000
     36  f000				   start
     37  f000		       78		      sei
     38  f001		       d8		      cld
     39  f002		       a0 00		      ldy	#0
     40  f004		       a5 d0		      lda	$D0
     41  f006		       c9 2c		      cmp	#$2C	;check RAM location #1
     42  f008		       d0 07		      bne	MachineIs2600
     43  f00a		       a5 d1		      lda	$D1
     44  f00c		       c9 a9		      cmp	#$A9	;check RAM location #2
     45  f00e		       d0 01		      bne	MachineIs2600
     46  f010		       88		      dey
     47  f011				   MachineIs2600
     48  f011		       a2 00		      ldx	#0
     49  f013		       8a		      txa
     50  f014				   clearmem
     51  f014		       e8		      inx
     52  f015		       9a		      txs
     53  f016		       48		      pha
     54  f017		       d0 fb		      bne	clearmem
     55  f019		       84 9c		      sty	temp1
     56  f01b					      ifnconst	multisprite
     57  f01b				  -	      ifconst	pfrowheight
     58  f01b				  -	      lda	#pfrowheight
     59  f01b					      else
     60  f01b				  -	      ifconst	pfres
     61  f01b				  -	      lda	#(96/pfres)
     62  f01b					      else
     63  f01b		       a9 08		      lda	#8
     64  f01d					      endif
     65  f01d					      endif
     66  f01d		       85 ef		      sta	playfieldpos
     67  f01f					      endif
     68  f01f		       a2 05		      ldx	#5
     69  f021				   initscore
     70  f021		       a9 9c		      lda	#<scoretable
     71  f023		       95 96		      sta	scorepointers,x
     72  f025		       ca		      dex
     73  f026		       10 f9		      bpl	initscore
     74  f028		       a9 01		      lda	#1
     75  f02a		       85 0a		      sta	CTRLPF
     76  f02c		       0d 84 02 	      ora	INTIM
     77  f02f		       85 a2		      sta	rand
     78  f031
     79  f031				  -	      ifconst	multisprite
     80  f031				  -	      jsr	multisprite_setup
     81  f031					      endif
     82  f031
     83  f031					      ifnconst	bankswitch
     84  f031		       4c bc f4 	      jmp	game
     85  f034				  -	      else
     86  f034				  -	      lda	#>(game-1)
     87  f034				  -	      pha
     88  f034				  -	      lda	#<(game-1)
     89  f034				  -	      pha
     90  f034				  -	      pha
     91  f034				  -	      pha
     92  f034				  -	      ldx	#1
     93  f034				  -	      jmp	BS_jsr
     94  f034					      endif
     95  f034							; Provided under the CC0 license. See the included LICENSE.txt for details.
     96  f034
     97  f034							; This is a 2-line kernel!
     98  f034					      ifnconst	vertical_reflect
     99  f034				   kernel
    100  f034					      endif
    101  f034		       85 02		      sta	WSYNC
    102  f036		       a9 ff		      lda	#255
    103  f038		       8d 96 02 	      sta	TIM64T
    104  f03b
    105  f03b		       a9 01		      lda	#1
    106  f03d		       85 27		      sta	VDELBL
    107  f03f		       85 25		      sta	VDELP0
    108  f041		       a6 92		      ldx	ballheight
    109  f043		       e8		      inx
    110  f044		       e8		      inx
    111  f045		       86 9f		      stx	temp4
    112  f047		       a5 86		      lda	player1y
    113  f049		       85 9e		      sta	temp3
    114  f04b
    115  f04b				  -	      ifconst	shakescreen
    116  f04b				  -	      jsr	doshakescreen
    117  f04b					      else
    118  f04b		       a6 90		      ldx	missile0height
    119  f04d		       e8		      inx
    120  f04e					      endif
    121  f04e
    122  f04e		       e8		      inx
    123  f04f		       86 f6		      stx	stack1
    124  f051
    125  f051		       a5 89		      lda	bally
    126  f053		       85 f7		      sta	stack2
    127  f055
    128  f055		       a5 85		      lda	player0y
    129  f057		       a2 00		      ldx	#0
    130  f059		       85 02		      sta	WSYNC
    131  f05b		       86 1b		      stx	GRP0
    132  f05d		       86 1c		      stx	GRP1
    133  f05f		       86 0e		      stx	PF1L
    134  f061		       86 0f		      stx	PF2
    135  f063		       86 2c		      stx	CXCLR
    136  f065				  -	      ifconst	readpaddle
    137  f065				  -	      stx	paddle
    138  f065					      else
      0  f065					      sleep	3
      1  f065				   .CYCLES    SET	3
      2  f065
      3  f065				  -	      IF	.CYCLES < 2
      4  f065				  -	      ECHO	"MACRO ERROR: 'SLEEP': Duration must be > 1"
      5  f065				  -	      ERR
      6  f065					      ENDIF
      7  f065
      8  f065					      IF	.CYCLES & 1
      9  f065					      IFNCONST	NO_ILLEGAL_OPCODES
     10  f065		       04 00		      nop	0
     11  f067				  -	      ELSE
     12  f067				  -	      bit	VSYNC
     13  f067					      ENDIF
     14  f067				   .CYCLES    SET	.CYCLES - 3
     15  f067					      ENDIF
     16  f067
     17  f067				  -	      REPEAT	.CYCLES / 2
     18  f067				  -	      nop
     19  f067					      REPEND
    140  f067					      endif
    141  f067
    142  f067		       95 9d		      sta	temp2,x
    143  f069
    144  f069							;store these so they can be retrieved later
    145  f069					      ifnconst	pfres
    146  f069		       a2 54		      ldx	#128-44+(4-pfwidth)*12
    147  f06b				  -	      else
    148  f06b				  -	      ldx	#132-pfres*pfwidth
    149  f06b					      endif
    150  f06b
    151  f06b		       c6 85		      dec	player0y
    152  f06d
    153  f06d		       a5 91		      lda	missile0y
    154  f06f		       85 a0		      sta	temp5
    155  f071		       a5 88		      lda	missile1y
    156  f073		       85 a1		      sta	temp6
    157  f075
    158  f075		       a5 ef		      lda	playfieldpos
    159  f077		       85 9c		      sta	temp1
    160  f079
    161  f079				  -	      ifconst	pfrowheight
    162  f079				  -	      lda	#pfrowheight+2
    163  f079					      else
    164  f079					      ifnconst	pfres
    165  f079		       a9 0a		      lda	#10
    166  f07b				  -	      else
    167  f07b				  -	      lda	#(96/pfres)+2	; try to come close to the real size
    168  f07b					      endif
    169  f07b					      endif
    170  f07b		       18		      clc
    171  f07c		       e5 ef		      sbc	playfieldpos
    172  f07e		       85 ef		      sta	playfieldpos
    173  f080		       4c a8 f0 	      jmp	.startkernel
    174  f083
    175  f083				   .skipDrawP0
    176  f083		       a9 00		      lda	#0
    177  f085		       a8		      tay
    178  f086		       4c d6 f0 	      jmp	.continueP0
    179  f089
    180  f089				   .skipDrawP1
    181  f089		       a9 00		      lda	#0
    182  f08b		       a8		      tay
    183  f08c		       4c b2 f0 	      jmp	.continueP1
    184  f08f
    185  f08f				   .kerloop		; enter at cycle 59??
    186  f08f
    187  f08f				   continuekernel
      0  f08f					      sleep	2
      1  f08f				   .CYCLES    SET	2
      2  f08f
      3  f08f				  -	      IF	.CYCLES < 2
      4  f08f				  -	      ECHO	"MACRO ERROR: 'SLEEP': Duration must be > 1"
      5  f08f				  -	      ERR
      6  f08f					      ENDIF
      7  f08f
      8  f08f				  -	      IF	.CYCLES & 1
      9  f08f				  -	      IFNCONST	NO_ILLEGAL_OPCODES
     10  f08f				  -	      nop	0
     11  f08f				  -	      ELSE
     12  f08f				  -	      bit	VSYNC
     13  f08f				  -	      ENDIF
     14  f08f				  -.CYCLES    SET	.CYCLES - 3
     15  f08f					      ENDIF
     16  f08f
     17  f08f					      REPEAT	.CYCLES / 2
     18  f08f		       ea		      nop
     19  f090					      REPEND
    189  f090				   continuekernel2
    190  f090		       a5 92		      lda	ballheight
    191  f092
    192  f092				  -	      ifconst	pfres
    193  f092				  -	      ldy	playfield+pfres*pfwidth-132,x
    194  f092				  -	      sty	PF1L	;3
    195  f092				  -	      ldy	playfield+pfres*pfwidth-131-pfadjust,x
    196  f092				  -	      sty	PF2L	;3
    197  f092				  -	      ldy	playfield+pfres*pfwidth-129,x
    198  f092				  -	      sty	PF1R	; 3 too early?
    199  f092				  -	      ldy	playfield+pfres*pfwidth-130-pfadjust,x
    200  f092				  -	      sty	PF2R	;3
    201  f092					      else
    202  f092		       b4 50		      ldy	playfield-48+pfwidth*12+44-128,x
    203  f094		       84 0e		      sty	PF1L	;3
    204  f096		       b4 51		      ldy	playfield-48+pfwidth*12+45-128-pfadjust,x	;4
    205  f098		       84 0f		      sty	PF2L	;3
    206  f09a		       b4 53		      ldy	playfield-48+pfwidth*12+47-128,x	;4
    207  f09c		       84 0e		      sty	PF1R	; 3 too early?
    208  f09e		       b4 52		      ldy	playfield-48+pfwidth*12+46-128-pfadjust,x	;4
    209  f0a0		       84 0f		      sty	PF2R	;3
    210  f0a2					      endif
    211  f0a2
    212  f0a2							; should be playfield+$38 for width=2
    213  f0a2
    214  f0a2		       c7 89		      dcp	bally
    215  f0a4		       2a		      rol
    216  f0a5		       2a		      rol
    217  f0a6							; rol
    218  f0a6							; rol
    219  f0a6				   goback
    220  f0a6		       85 1f		      sta	ENABL
    221  f0a8				   .startkernel
    222  f0a8		       a5 8f		      lda	player1height	;3
    223  f0aa		       c7 86		      dcp	player1y	;5
    224  f0ac		       90 db		      bcc	.skipDrawP1	;2
    225  f0ae		       a4 86		      ldy	player1y	;3
    226  f0b0		       b1 8c		      lda	(player1pointer),y	;5; player0pointer must be selected carefully by the compiler
    227  f0b2							; so it doesn't cross a page boundary!
    228  f0b2
    229  f0b2				   .continueP1
    230  f0b2		       85 1c		      sta	GRP1	;3
    231  f0b4
    232  f0b4					      ifnconst	player1colors
    233  f0b4		       a5 87		      lda	missile1height	;3
    234  f0b6		       c7 88		      dcp	missile1y	;5
    235  f0b8		       2a		      rol		;2
    236  f0b9		       2a		      rol		;2
    237  f0ba		       85 1e		      sta	ENAM1	;3
    238  f0bc				  -	      else
    239  f0bc				  -	      lda	(player1color),y
    240  f0bc				  -	      sta	COLUP1
    241  f0bc				  -	      ifnconst	playercolors
    242  f0bc				  -	      sleep	7
    243  f0bc				  -	      else
    244  f0bc				  -	      lda.w	player0colorstore
    245  f0bc				  -	      sta	COLUP0
    246  f0bc				  -	      endif
    247  f0bc					      endif
    248  f0bc
    249  f0bc				  -	      ifconst	pfres
    250  f0bc				  -	      lda	playfield+pfres*pfwidth-132,x
    251  f0bc				  -	      sta	PF1L	;3
    252  f0bc				  -	      lda	playfield+pfres*pfwidth-131-pfadjust,x
    253  f0bc				  -	      sta	PF2L	;3
    254  f0bc				  -	      lda	playfield+pfres*pfwidth-129,x
    255  f0bc				  -	      sta	PF1R	; 3 too early?
    256  f0bc				  -	      lda	playfield+pfres*pfwidth-130-pfadjust,x
    257  f0bc				  -	      sta	PF2R	;3
    258  f0bc					      else
    259  f0bc		       b5 50		      lda	playfield-48+pfwidth*12+44-128,x	;4
    260  f0be		       85 0e		      sta	PF1L	;3
    261  f0c0		       b5 51		      lda	playfield-48+pfwidth*12+45-128-pfadjust,x	;4
    262  f0c2		       85 0f		      sta	PF2L	;3
    263  f0c4		       b5 53		      lda	playfield-48+pfwidth*12+47-128,x	;4
    264  f0c6		       85 0e		      sta	PF1R	; 3 too early?
    265  f0c8		       b5 52		      lda	playfield-48+pfwidth*12+46-128-pfadjust,x	;4
    266  f0ca		       85 0f		      sta	PF2R	;3
    267  f0cc					      endif
    268  f0cc							; sleep 3
    269  f0cc
    270  f0cc		       a5 8e		      lda	player0height
    271  f0ce		       c7 85		      dcp	player0y
    272  f0d0		       90 b1		      bcc	.skipDrawP0
    273  f0d2		       a4 85		      ldy	player0y
    274  f0d4		       b1 8a		      lda	(player0pointer),y
    275  f0d6				   .continueP0
    276  f0d6		       85 1b		      sta	GRP0
    277  f0d8
    278  f0d8					      ifnconst	no_blank_lines
    279  f0d8					      ifnconst	playercolors
    280  f0d8		       a5 90		      lda	missile0height	;3
    281  f0da		       c7 91		      dcp	missile0y	;5
    282  f0dc		       e5 f6		      sbc	stack1
    283  f0de		       85 1d		      sta	ENAM0	;3
    284  f0e0				  -	      else
    285  f0e0				  -	      lda	(player0color),y
    286  f0e0				  -	      sta	player0colorstore
    287  f0e0				  -	      sleep	6
    288  f0e0					      endif
    289  f0e0		       c6 9c		      dec	temp1
    290  f0e2		       d0 ab		      bne	continuekernel
    291  f0e4				  -	      else
    292  f0e4				  -	      dec	temp1
    293  f0e4				  -	      beq	altkernel2
    294  f0e4				  -	      ifconst	readpaddle
    295  f0e4				  -	      ldy	currentpaddle
    296  f0e4				  -	      lda	INPT0,y
    297  f0e4				  -	      bpl	noreadpaddle
    298  f0e4				  -	      inc	paddle
    299  f0e4				  -	      jmp	continuekernel2
    300  f0e4				  -noreadpaddle
    301  f0e4				  -	      sleep	2
    302  f0e4				  -	      jmp	continuekernel
    303  f0e4				  -	      else
    304  f0e4				  -	      ifnconst	playercolors
    305  f0e4				  -	      ifconst	PFcolors
    306  f0e4				  -	      txa
    307  f0e4				  -	      tay
    308  f0e4				  -	      lda	(pfcolortable),y
    309  f0e4				  -	      ifnconst	backgroundchange
    310  f0e4				  -	      sta	COLUPF
    311  f0e4				  -	      else
    312  f0e4				  -	      sta	COLUBK
    313  f0e4				  -	      endif
    314  f0e4				  -	      jmp	continuekernel
    315  f0e4				  -	      else
    316  f0e4				  -	      ifconst	kernelmacrodef
    317  f0e4				  -	      kernelmacro
    318  f0e4				  -	      else
    319  f0e4				  -	      sleep	12
    320  f0e4				  -	      endif
    321  f0e4				  -	      endif
    322  f0e4				  -	      else
    323  f0e4				  -	      lda	(player0color),y
    324  f0e4				  -	      sta	player0colorstore
    325  f0e4				  -	      sleep	4
    326  f0e4				  -	      endif
    327  f0e4				  -	      jmp	continuekernel
    328  f0e4				  -	      endif
    329  f0e4				  -altkernel2
    330  f0e4				  -	      txa
    331  f0e4				  -	      ifnconst	vertical_reflect
    332  f0e4				  -	      sbx	#256-pfwidth
    333  f0e4				  -	      else
    334  f0e4				  -	      sbx	#256-pfwidth/2
    335  f0e4				  -	      endif
    336  f0e4				  -	      bmi	lastkernelline
    337  f0e4				  -	      ifconst	pfrowheight
    338  f0e4				  -	      lda	#pfrowheight
    339  f0e4				  -	      else
    340  f0e4				  -	      ifnconst	pfres
    341  f0e4				  -	      lda	#8
    342  f0e4				  -	      else
    343  f0e4				  -	      lda	#(96/pfres)	; try to come close to the real size
    344  f0e4				  -	      endif
    345  f0e4				  -	      endif
    346  f0e4				  -	      sta	temp1
    347  f0e4				  -	      jmp	continuekernel
    348  f0e4					      endif
    349  f0e4
    350  f0e4				   altkernel
    351  f0e4
    352  f0e4				  -	      ifconst	PFmaskvalue
    353  f0e4				  -	      lda	#PFmaskvalue
    354  f0e4					      else
    355  f0e4		       a9 00		      lda	#0
    356  f0e6					      endif
    357  f0e6		       85 0e		      sta	PF1L
    358  f0e8		       85 0f		      sta	PF2
    359  f0ea
    360  f0ea
    361  f0ea							;sleep 3
    362  f0ea
    363  f0ea							;28 cycles to fix things
    364  f0ea							;minus 11=17
    365  f0ea
    366  f0ea							; lax temp4
    367  f0ea							; clc
    368  f0ea		       8a		      txa
    369  f0eb					      ifnconst	vertical_reflect
    370  f0eb		       cb fc		      sbx	#256-pfwidth
    371  f0ed				  -	      else
    372  f0ed				  -	      sbx	#256-pfwidth/2
    373  f0ed					      endif
    374  f0ed
    375  f0ed		       30 14		      bmi	lastkernelline
    376  f0ef
    377  f0ef					      ifconst	PFcolorandheight
    378  f0ef				  -	      ifconst	pfres
    379  f0ef				  -	      ldy	playfieldcolorandheight-131+pfres*pfwidth,x
    380  f0ef					      else
    381  f0ef		       bc 01 fa 	      ldy	playfieldcolorandheight-87,x
    382  f0f2					      endif
    383  f0f2					      ifnconst	backgroundchange
    384  f0f2		       84 08		      sty	COLUPF
    385  f0f4				  -	      else
    386  f0f4				  -	      sty	COLUBK
    387  f0f4					      endif
    388  f0f4				  -	      ifconst	pfres
    389  f0f4				  -	      lda	playfieldcolorandheight-132+pfres*pfwidth,x
    390  f0f4					      else
    391  f0f4		       bd 00 fa 	      lda	playfieldcolorandheight-88,x
    392  f0f7					      endif
    393  f0f7		       8d 9c 00 	      sta.w	temp1
    394  f0fa					      endif
    395  f0fa				  -	      ifconst	PFheights
    396  f0fa				  -	      lsr
    397  f0fa				  -	      lsr
    398  f0fa				  -	      tay
    399  f0fa				  -	      lda	(pfheighttable),y
    400  f0fa				  -	      sta.w	temp1
    401  f0fa					      endif
    402  f0fa				  -	      ifconst	PFcolors
    403  f0fa				  -	      tay
    404  f0fa				  -	      lda	(pfcolortable),y
    405  f0fa				  -	      ifnconst	backgroundchange
    406  f0fa				  -	      sta	COLUPF
    407  f0fa				  -	      else
    408  f0fa				  -	      sta	COLUBK
    409  f0fa				  -	      endif
    410  f0fa				  -	      ifconst	pfrowheight
    411  f0fa				  -	      lda	#pfrowheight
    412  f0fa				  -	      else
    413  f0fa				  -	      ifnconst	pfres
    414  f0fa				  -	      lda	#8
    415  f0fa				  -	      else
    416  f0fa				  -	      lda	#(96/pfres)	; try to come close to the real size
    417  f0fa				  -	      endif
    418  f0fa				  -	      endif
    419  f0fa				  -	      sta	temp1
    420  f0fa					      endif
    421  f0fa				  -	      ifnconst	PFcolorandheight
    422  f0fa				  -	      ifnconst	PFcolors
    423  f0fa				  -	      ifnconst	PFheights
    424  f0fa				  -	      ifnconst	no_blank_lines
    425  f0fa				  -			; read paddle 0
    426  f0fa				  -			; lo-res paddle read
    427  f0fa				  -			; bit INPT0
    428  f0fa				  -			; bmi paddleskipread
    429  f0fa				  -			; inc paddle0
    430  f0fa				  -			;donepaddleskip
    431  f0fa				  -	      sleep	10
    432  f0fa				  -	      ifconst	pfrowheight
    433  f0fa				  -	      lda	#pfrowheight
    434  f0fa				  -	      else
    435  f0fa				  -	      ifnconst	pfres
    436  f0fa				  -	      lda	#8
    437  f0fa				  -	      else
    438  f0fa				  -	      lda	#(96/pfres)	; try to come close to the real size
    439  f0fa				  -	      endif
    440  f0fa				  -	      endif
    441  f0fa				  -	      sta	temp1
    442  f0fa				  -	      endif
    443  f0fa				  -	      endif
    444  f0fa				  -	      endif
    445  f0fa					      endif
    446  f0fa
    447  f0fa
    448  f0fa		       a5 92		      lda	ballheight
    449  f0fc		       c7 89		      dcp	bally
    450  f0fe		       e5 9f		      sbc	temp4
    451  f100
    452  f100
    453  f100		       4c a6 f0 	      jmp	goback
    454  f103
    455  f103
    456  f103					      ifnconst	no_blank_lines
    457  f103				   lastkernelline
    458  f103					      ifnconst	PFcolors
      0  f103					      sleep	10
      1  f103				   .CYCLES    SET	10
      2  f103
      3  f103				  -	      IF	.CYCLES < 2
      4  f103				  -	      ECHO	"MACRO ERROR: 'SLEEP': Duration must be > 1"
      5  f103				  -	      ERR
      6  f103					      ENDIF
      7  f103
      8  f103				  -	      IF	.CYCLES & 1
      9  f103				  -	      IFNCONST	NO_ILLEGAL_OPCODES
     10  f103				  -	      nop	0
     11  f103				  -	      ELSE
     12  f103				  -	      bit	VSYNC
     13  f103				  -	      ENDIF
     14  f103				  -.CYCLES    SET	.CYCLES - 3
     15  f103					      ENDIF
     16  f103
     17  f103					      REPEAT	.CYCLES / 2
     18  f103		       ea		      nop
     17  f103					      REPEND
     18  f104		       ea		      nop
     17  f104					      REPEND
     18  f105		       ea		      nop
     17  f105					      REPEND
     18  f106		       ea		      nop
     17  f106					      REPEND
     18  f107		       ea		      nop
     19  f108					      REPEND
    460  f108				  -	      else
    461  f108				  -	      ldy	#124
    462  f108				  -	      lda	(pfcolortable),y
    463  f108				  -	      sta	COLUPF
    464  f108					      endif
    465  f108
    466  f108				  -	      ifconst	PFheights
    467  f108				  -	      ldx	#1
    468  f108				  -			;sleep 4
    469  f108				  -	      sleep	3	; this was over 1 cycle
    470  f108					      else
    471  f108		       a6 ef		      ldx	playfieldpos
    472  f10a							;sleep 3
      0  f10a					      sleep	2	; this was over 1 cycle
      1  f10a				   .CYCLES    SET	2
      2  f10a
      3  f10a				  -	      IF	.CYCLES < 2
      4  f10a				  -	      ECHO	"MACRO ERROR: 'SLEEP': Duration must be > 1"
      5  f10a				  -	      ERR
      6  f10a					      ENDIF
      7  f10a
      8  f10a				  -	      IF	.CYCLES & 1
      9  f10a				  -	      IFNCONST	NO_ILLEGAL_OPCODES
     10  f10a				  -	      nop	0
     11  f10a				  -	      ELSE
     12  f10a				  -	      bit	VSYNC
     13  f10a				  -	      ENDIF
     14  f10a				  -.CYCLES    SET	.CYCLES - 3
     15  f10a					      ENDIF
     16  f10a
     17  f10a					      REPEAT	.CYCLES / 2
     18  f10a		       ea		      nop
     19  f10b					      REPEND
    474  f10b					      endif
    475  f10b
    476  f10b		       4c 29 f1 	      jmp	enterlastkernel
    477  f10e
    478  f10e				  -	      else
    479  f10e				  -lastkernelline
    480  f10e				  -
    481  f10e				  -	      ifconst	PFheights
    482  f10e				  -	      ldx	#1
    483  f10e				  -			;sleep 5
    484  f10e				  -	      sleep	4	; this was over 1 cycle
    485  f10e				  -	      else
    486  f10e				  -	      ldx	playfieldpos
    487  f10e				  -			;sleep 4
    488  f10e				  -	      sleep	3	; this was over 1 cycle
    489  f10e				  -	      endif
    490  f10e				  -
    491  f10e				  -	      cpx	#0
    492  f10e				  -	      bne	.enterfromNBL
    493  f10e				  -	      jmp	no_blank_lines_bailout
    494  f10e					      endif
    495  f10e
    496  f10e				  -	      if	((<*)>$d5)
    497  f10e				  -	      align	256
    498  f10e					      endif
    499  f10e							; this is a kludge to prevent page wrapping - fix!!!
    500  f10e
    501  f10e				   .skipDrawlastP1
    502  f10e		       a9 00		      lda	#0
    503  f110		       a8		      tay		; added so we don't cross a page
    504  f111		       4c 3b f1 	      jmp	.continuelastP1
    505  f114
    506  f114				   .endkerloop		; enter at cycle 59??
    507  f114
    508  f114		       ea		      nop
    509  f115
    510  f115				   .enterfromNBL
    511  f115				  -	      ifconst	pfres
    512  f115				  -	      ldy.w	playfield+pfres*pfwidth-4
    513  f115				  -	      sty	PF1L	;3
    514  f115				  -	      ldy.w	playfield+pfres*pfwidth-3-pfadjust
    515  f115				  -	      sty	PF2L	;3
    516  f115				  -	      ldy.w	playfield+pfres*pfwidth-1
    517  f115				  -	      sty	PF1R	; possibly too early?
    518  f115				  -	      ldy.w	playfield+pfres*pfwidth-2-pfadjust
    519  f115				  -	      sty	PF2R	;3
    520  f115					      else
    521  f115		       ac d0 00 	      ldy.w	playfield-48+pfwidth*12+44
    522  f118		       84 0e		      sty	PF1L	;3
    523  f11a		       ac d1 00 	      ldy.w	playfield-48+pfwidth*12+45-pfadjust
    524  f11d		       84 0f		      sty	PF2L	;3
    525  f11f		       ac d3 00 	      ldy.w	playfield-48+pfwidth*12+47
    526  f122		       84 0e		      sty	PF1R	; possibly too early?
    527  f124		       ac d2 00 	      ldy.w	playfield-48+pfwidth*12+46-pfadjust
    528  f127		       84 0f		      sty	PF2R	;3
    529  f129					      endif
    530  f129
    531  f129				   enterlastkernel
    532  f129		       a5 92		      lda	ballheight
    533  f12b
    534  f12b							; tya
    535  f12b		       c7 89		      dcp	bally
    536  f12d							; sleep 4
    537  f12d
    538  f12d							; sbc stack3
    539  f12d		       2a		      rol
    540  f12e		       2a		      rol
    541  f12f		       85 1f		      sta	ENABL
    542  f131
    543  f131		       a5 8f		      lda	player1height	;3
    544  f133		       c7 86		      dcp	player1y	;5
    545  f135		       90 d7		      bcc	.skipDrawlastP1
    546  f137		       a4 86		      ldy	player1y	;3
    547  f139		       b1 8c		      lda	(player1pointer),y	;5; player0pointer must be selected carefully by the compiler
    548  f13b							; so it doesn't cross a page boundary!
    549  f13b
    550  f13b				   .continuelastP1
    551  f13b		       85 1c		      sta	GRP1	;3
    552  f13d
    553  f13d					      ifnconst	player1colors
    554  f13d		       a5 87		      lda	missile1height	;3
    555  f13f		       c7 88		      dcp	missile1y	;5
    556  f141				  -	      else
    557  f141				  -	      lda	(player1color),y
    558  f141				  -	      sta	COLUP1
    559  f141					      endif
    560  f141
    561  f141		       ca		      dex
    562  f142							;dec temp4 ; might try putting this above PF writes
    563  f142		       f0 36		      beq	endkernel
    564  f144
    565  f144
    566  f144				  -	      ifconst	pfres
    567  f144				  -	      ldy.w	playfield+pfres*pfwidth-4
    568  f144				  -	      sty	PF1L	;3
    569  f144				  -	      ldy.w	playfield+pfres*pfwidth-3-pfadjust
    570  f144				  -	      sty	PF2L	;3
    571  f144				  -	      ldy.w	playfield+pfres*pfwidth-1
    572  f144				  -	      sty	PF1R	; possibly too early?
    573  f144				  -	      ldy.w	playfield+pfres*pfwidth-2-pfadjust
    574  f144				  -	      sty	PF2R	;3
    575  f144					      else
    576  f144		       ac d0 00 	      ldy.w	playfield-48+pfwidth*12+44
    577  f147		       84 0e		      sty	PF1L	;3
    578  f149		       ac d1 00 	      ldy.w	playfield-48+pfwidth*12+45-pfadjust
    579  f14c		       84 0f		      sty	PF2L	;3
    580  f14e		       ac d3 00 	      ldy.w	playfield-48+pfwidth*12+47
    581  f151		       84 0e		      sty	PF1R	; possibly too early?
    582  f153		       ac d2 00 	      ldy.w	playfield-48+pfwidth*12+46-pfadjust
    583  f156		       84 0f		      sty	PF2R	;3
    584  f158					      endif
    585  f158
    586  f158					      ifnconst	player1colors
    587  f158		       2a		      rol		;2
    588  f159		       2a		      rol		;2
    589  f15a		       85 1e		      sta	ENAM1	;3
    590  f15c				  -	      else
    591  f15c				  -	      ifnconst	playercolors
    592  f15c				  -	      sleep	7
    593  f15c				  -	      else
    594  f15c				  -	      lda.w	player0colorstore
    595  f15c				  -	      sta	COLUP0
    596  f15c				  -	      endif
    597  f15c					      endif
    598  f15c
    599  f15c		       ad 8e 00 	      lda.w	player0height
    600  f15f		       c7 85		      dcp	player0y
    601  f161		       90 11		      bcc	.skipDrawlastP0
    602  f163		       a4 85		      ldy	player0y
    603  f165		       b1 8a		      lda	(player0pointer),y
    604  f167				   .continuelastP0
    605  f167		       85 1b		      sta	GRP0
    606  f169
    607  f169
    608  f169
    609  f169					      ifnconst	no_blank_lines
    610  f169		       a5 90		      lda	missile0height	;3
    611  f16b		       c7 91		      dcp	missile0y	;5
    612  f16d		       e5 f6		      sbc	stack1
    613  f16f		       85 1d		      sta	ENAM0	;3
    614  f171		       4c 14 f1 	      jmp	.endkerloop
    615  f174				  -	      else
    616  f174				  -	      ifconst	readpaddle
    617  f174				  -	      ldy	currentpaddle
    618  f174				  -	      lda	INPT0,y
    619  f174				  -	      bpl	noreadpaddle2
    620  f174				  -	      inc	paddle
    621  f174				  -	      jmp	.endkerloop
    622  f174				  -noreadpaddle2
    623  f174				  -	      sleep	4
    624  f174				  -	      jmp	.endkerloop
    625  f174				  -	      else		; no_blank_lines and no paddle reading
    626  f174				  -	      pla
    627  f174				  -	      pha		; 14 cycles in 4 bytes
    628  f174				  -	      pla
    629  f174				  -	      pha
    630  f174				  -			; sleep 14
    631  f174				  -	      jmp	.endkerloop
    632  f174				  -	      endif
    633  f174					      endif
    634  f174
    635  f174
    636  f174							; ifconst donepaddleskip
    637  f174							;paddleskipread
    638  f174							; this is kind of lame, since it requires 4 cycles from a page boundary crossing
    639  f174							; plus we get a lo-res paddle read
    640  f174							; bmi donepaddleskip
    641  f174							; endif
    642  f174
    643  f174				   .skipDrawlastP0
    644  f174		       a9 00		      lda	#0
    645  f176		       a8		      tay
    646  f177		       4c 67 f1 	      jmp	.continuelastP0
    647  f17a
    648  f17a				  -	      ifconst	no_blank_lines
    649  f17a				  -no_blank_lines_bailout
    650  f17a				  -	      ldx	#0
    651  f17a					      endif
    652  f17a
    653  f17a				   endkernel
    654  f17a							; 6 digit score routine
    655  f17a		       86 0e		      stx	PF1
    656  f17c		       86 0f		      stx	PF2
    657  f17e		       86 0d		      stx	PF0
    658  f180		       18		      clc
    659  f181
    660  f181				  -	      ifconst	pfrowheight
    661  f181				  -	      lda	#pfrowheight+2
    662  f181					      else
    663  f181					      ifnconst	pfres
    664  f181		       a9 0a		      lda	#10
    665  f183				  -	      else
    666  f183				  -	      lda	#(96/pfres)+2	; try to come close to the real size
    667  f183					      endif
    668  f183					      endif
    669  f183
    670  f183		       e5 ef		      sbc	playfieldpos
    671  f185		       85 ef		      sta	playfieldpos
    672  f187		       8a		      txa
    673  f188
    674  f188				  -	      ifconst	shakescreen
    675  f188				  -	      bit	shakescreen
    676  f188				  -	      bmi	noshakescreen2
    677  f188				  -	      ldx	#$3D
    678  f188				  -noshakescreen2
    679  f188					      endif
    680  f188
    681  f188		       95 02		      sta	WSYNC,x
    682  f18a
    683  f18a							; STA WSYNC ;first one, need one more
    684  f18a		       85 0b		      sta	REFP0
    685  f18c		       85 0c		      sta	REFP1
    686  f18e		       85 1b		      STA	GRP0
    687  f190		       85 1c		      STA	GRP1
    688  f192							; STA PF1
    689  f192							; STA PF2
    690  f192		       85 2b		      sta	HMCLR
    691  f194		       85 1d		      sta	ENAM0
    692  f196		       85 1e		      sta	ENAM1
    693  f198		       85 1f		      sta	ENABL
    694  f19a
    695  f19a		       a5 9d		      lda	temp2	;restore variables that were obliterated by kernel
    696  f19c		       85 85		      sta	player0y
    697  f19e		       a5 9e		      lda	temp3
    698  f1a0		       85 86		      sta	player1y
    699  f1a2					      ifnconst	player1colors
    700  f1a2		       a5 a1		      lda	temp6
    701  f1a4		       85 88		      sta	missile1y
    702  f1a6					      endif
    703  f1a6					      ifnconst	playercolors
    704  f1a6					      ifnconst	readpaddle
    705  f1a6		       a5 a0		      lda	temp5
    706  f1a8		       85 91		      sta	missile0y
    707  f1aa					      endif
    708  f1aa					      endif
    709  f1aa		       a5 f7		      lda	stack2
    710  f1ac		       85 89		      sta	bally
    711  f1ae
    712  f1ae							; strangely, this isn't required any more. might have
    713  f1ae							; resulted from the no_blank_lines score bounce fix
    714  f1ae							;ifconst no_blank_lines
    715  f1ae							;sta WSYNC
    716  f1ae							;endif
    717  f1ae
    718  f1ae		       ad 84 02 	      lda	INTIM
    719  f1b1		       18		      clc
    720  f1b2					      ifnconst	vblank_time
    721  f1b2		       69 8e		      adc	#43+12+87
    722  f1b4				  -	      else
    723  f1b4				  -	      adc	#vblank_time+12+87
    724  f1b4				  -
    725  f1b4					      endif
    726  f1b4							; sta WSYNC
    727  f1b4		       8d 96 02 	      sta	TIM64T
    728  f1b7
    729  f1b7					      ifconst	minikernel
    730  f1b7		       20 68 f4 	      jsr	minikernel
    731  f1ba					      endif
    732  f1ba
    733  f1ba							; now reassign temp vars for score pointers
    734  f1ba
    735  f1ba							; score pointers contain:
    736  f1ba							; score1-5: lo1,lo2,lo3,lo4,lo5,lo6
    737  f1ba							; swap lo2->temp1
    738  f1ba							; swap lo4->temp3
    739  f1ba							; swap lo6->temp5
    740  f1ba					      ifnconst	noscore
    741  f1ba		       a5 97		      lda	scorepointers+1
    742  f1bc							; ldy temp1
    743  f1bc		       85 9c		      sta	temp1
    744  f1be							; sty scorepointers+1
    745  f1be
    746  f1be		       a5 99		      lda	scorepointers+3
    747  f1c0							; ldy temp3
    748  f1c0		       85 9e		      sta	temp3
    749  f1c2							; sty scorepointers+3
    750  f1c2
    751  f1c2
    752  f1c2		       85 2b		      sta	HMCLR
    753  f1c4		       ba		      tsx
    754  f1c5		       86 f6		      stx	stack1
    755  f1c7		       a2 e0		      ldx	#$E0
    756  f1c9		       86 20		      stx	HMP0
    757  f1cb
    758  f1cb		       a5 a3		      LDA	scorecolor
    759  f1cd		       85 06		      STA	COLUP0
    760  f1cf		       85 07		      STA	COLUP1
    761  f1d1				  -	      ifconst	scorefade
    762  f1d1				  -	      STA	stack2
    763  f1d1					      endif
    764  f1d1					      ifconst	pfscore
    765  f1d1		       a5 f4		      lda	pfscorecolor
    766  f1d3		       85 08		      sta	COLUPF
    767  f1d5					      endif
    768  f1d5		       85 02		      sta	WSYNC
    769  f1d7		       a2 00		      ldx	#0
    770  f1d9		       86 1b		      STx	GRP0
    771  f1db		       86 1c		      STx	GRP1	; seems to be needed because of vdel
    772  f1dd
    773  f1dd		       a5 9b		      lda	scorepointers+5
    774  f1df							; ldy temp5
    775  f1df		       95 a0		      sta	temp5,x
    776  f1e1							; sty scorepointers+5
    777  f1e1		       a9 ff		      lda	#>scoretable
    778  f1e3		       85 97		      sta	scorepointers+1
    779  f1e5		       85 99		      sta	scorepointers+3
    780  f1e7		       85 9b		      sta	scorepointers+5
    781  f1e9		       85 9d		      sta	temp2
    782  f1eb		       85 9f		      sta	temp4
    783  f1ed		       85 a1		      sta	temp6
    784  f1ef		       a0 07		      LDY	#7
    785  f1f1		       84 25		      STY	VDELP0
    786  f1f3		       85 10		      STA	RESP0
    787  f1f5		       85 11		      STA	RESP1
    788  f1f7
    789  f1f7
    790  f1f7		       a9 03		      LDA	#$03
    791  f1f9		       85 04		      STA	NUSIZ0
    792  f1fb		       85 05		      STA	NUSIZ1
    793  f1fd		       85 26		      STA	VDELP1
    794  f1ff		       a9 f0		      LDA	#$F0
    795  f201		       85 21		      STA	HMP1
    796  f203		       b1 96		      lda	(scorepointers),y
    797  f205		       85 1b		      sta	GRP0
    798  f207		       85 2a		      STA	HMOVE	; cycle 73 ?
    799  f209		       4c 15 f2 	      jmp	beginscore
    800  f20c
    801  f20c
    802  f20c				  -	      if	((<*)>$d4)
    803  f20c				  -	      align	256	; kludge that potentially wastes space! should be fixed!
    804  f20c					      endif
    805  f20c
    806  f20c				   loop2
    807  f20c		       b1 96		      lda	(scorepointers),y	;+5 68 204
    808  f20e		       85 1b		      sta	GRP0	;+3 71 213 D1 -- -- --
    809  f210					      ifconst	pfscore
    810  f210		       ad f2 00 	      lda.w	pfscore1
    811  f213		       85 0e		      sta	PF1
    812  f215				  -	      else
    813  f215				  -	      ifconst	scorefade
    814  f215				  -	      sleep	2
    815  f215				  -	      dec	stack2	; decrement the temporary scorecolor
    816  f215				  -	      else
    817  f215				  -	      sleep	7
    818  f215				  -	      endif
    819  f215					      endif
    820  f215							; cycle 0
    821  f215				   beginscore
    822  f215		       b1 9e		      lda	(scorepointers+$8),y	;+5 5 15
    823  f217		       85 1c		      sta	GRP1	;+3 8 24 D1 D1 D2 --
    824  f219		       b1 9c		      lda	(scorepointers+$6),y	;+5 13 39
    825  f21b		       85 1b		      sta	GRP0	;+3 16 48 D3 D1 D2 D2
    826  f21d		       b3 98		      lax	(scorepointers+$2),y	;+5 29 87
    827  f21f		       9a		      txs
    828  f220		       b3 9a		      lax	(scorepointers+$4),y	;+5 36 108
    829  f222				  -	      ifconst	scorefade
    830  f222				  -	      lda	stack2
    831  f222					      else
      0  f222					      sleep	3
      1  f222				   .CYCLES    SET	3
      2  f222
      3  f222				  -	      IF	.CYCLES < 2
      4  f222				  -	      ECHO	"MACRO ERROR: 'SLEEP': Duration must be > 1"
      5  f222				  -	      ERR
      6  f222					      ENDIF
      7  f222
      8  f222					      IF	.CYCLES & 1
      9  f222					      IFNCONST	NO_ILLEGAL_OPCODES
     10  f222		       04 00		      nop	0
     11  f224				  -	      ELSE
     12  f224				  -	      bit	VSYNC
     13  f224					      ENDIF
     14  f224				   .CYCLES    SET	.CYCLES - 3
     15  f224					      ENDIF
     16  f224
     17  f224				  -	      REPEAT	.CYCLES / 2
     18  f224				  -	      nop
     19  f224					      REPEND
    833  f224					      endif
    834  f224
    835  f224					      ifconst	pfscore
    836  f224		       a5 f3		      lda	pfscore2
    837  f226		       85 0e		      sta	PF1
    838  f228				  -	      else
    839  f228				  -	      ifconst	scorefade
    840  f228				  -	      sta	COLUP0
    841  f228				  -	      sta	COLUP1
    842  f228				  -	      else
    843  f228				  -	      sleep	6
    844  f228				  -	      endif
    845  f228					      endif
    846  f228
    847  f228		       b1 a0		      lda	(scorepointers+$A),y	;+5 21 63
    848  f22a		       86 1c		      stx	GRP1	;+3 44 132 D3 D3 D4 D2!
    849  f22c		       ba		      tsx
    850  f22d		       86 1b		      stx	GRP0	;+3 47 141 D5 D3! D4 D4
    851  f22f		       85 1c		      sta	GRP1	;+3 50 150 D5 D5 D6 D4!
    852  f231		       84 1b		      sty	GRP0	;+3 53 159 D4* D5! D6 D6
    853  f233		       88		      dey
    854  f234		       10 d6		      bpl	loop2	;+2 60 180
    855  f236
    856  f236		       a6 f6		      ldx	stack1
    857  f238		       9a		      txs
    858  f239							; lda scorepointers+1
    859  f239		       a4 9c		      ldy	temp1
    860  f23b							; sta temp1
    861  f23b		       84 97		      sty	scorepointers+1
    862  f23d
    863  f23d		       a9 00		      LDA	#0
    864  f23f		       85 0e		      sta	PF1
    865  f241		       85 1b		      STA	GRP0
    866  f243		       85 1c		      STA	GRP1
    867  f245		       85 25		      STA	VDELP0
    868  f247		       85 26		      STA	VDELP1	;do we need these
    869  f249		       85 04		      STA	NUSIZ0
    870  f24b		       85 05		      STA	NUSIZ1
    871  f24d
    872  f24d							; lda scorepointers+3
    873  f24d		       a4 9e		      ldy	temp3
    874  f24f							; sta temp3
    875  f24f		       84 99		      sty	scorepointers+3
    876  f251
    877  f251							; lda scorepointers+5
    878  f251		       a4 a0		      ldy	temp5
    879  f253							; sta temp5
    880  f253		       84 9b		      sty	scorepointers+5
    881  f255					      endif		;noscore
    882  f255				  -	      ifconst	readpaddle
    883  f255				  -	      lda	#%11000010
    884  f255					      else
    885  f255				  -	      ifconst	qtcontroller
    886  f255				  -	      lda	qtcontroller
    887  f255				  -	      lsr		; bit 0 in carry
    888  f255				  -	      lda	#4
    889  f255				  -	      ror		; carry into top of A
    890  f255					      else
    891  f255		       a9 02		      lda	#2
    892  f257					      endif		; qtcontroller
    893  f257					      endif		; readpaddle
    894  f257		       85 02		      sta	WSYNC
    895  f259		       85 01		      sta	VBLANK
      0  f25b					      RETURN
      1  f25b					      ifnconst	bankswitch
      2  f25b		       60		      rts
      3  f25c				  -	      else
      4  f25c				  -	      jmp	BS_return
      5  f25c					      endif
    897  f25c				  -	      ifconst	shakescreen
    898  f25c				  -doshakescreen
    899  f25c				  -	      bit	shakescreen
    900  f25c				  -	      bmi	noshakescreen
    901  f25c				  -	      sta	WSYNC
    902  f25c				  -noshakescreen
    903  f25c				  -	      ldx	missile0height
    904  f25c				  -	      inx
    905  f25c				  -	      rts
    906  f25c					      endif
    907  f25c
    908  f25c							; Provided under the CC0 license. See the included LICENSE.txt for details.
    909  f25c
    910  f25c							; playfield drawing routines
    911  f25c							; you get a 32x12 bitmapped display in a single color :)
    912  f25c							; 0-31 and 0-11
    913  f25c
    914  f25c				   pfclear		; clears playfield - or fill with pattern
    915  f25c				  -	      ifconst	pfres
    916  f25c				  -	      ldx	#pfres*pfwidth-1
    917  f25c					      else
    918  f25c		       a2 2f		      ldx	#47-(4-pfwidth)*12	; will this work?
    919  f25e					      endif
    920  f25e				   pfclear_loop
    921  f25e					      ifnconst	superchip
    922  f25e		       95 a4		      sta	playfield,x
    923  f260				  -	      else
    924  f260				  -	      sta	playfield-128,x
    925  f260					      endif
    926  f260		       ca		      dex
    927  f261		       10 fb		      bpl	pfclear_loop
      0  f263					      RETURN
      1  f263					      ifnconst	bankswitch
      2  f263		       60		      rts
      3  f264				  -	      else
      4  f264				  -	      jmp	BS_return
      5  f264					      endif
    929  f264
    930  f264				   setuppointers
    931  f264		       86 9d		      stx	temp2	; store on.off.flip value
    932  f266		       aa		      tax		; put x-value in x
    933  f267		       4a		      lsr
    934  f268		       4a		      lsr
    935  f269		       4a		      lsr		; divide x pos by 8
    936  f26a		       85 9c		      sta	temp1
    937  f26c		       98		      tya
    938  f26d		       0a		      asl
    939  f26e					      if	pfwidth=4
    940  f26e		       0a		      asl		; multiply y pos by 4
    941  f26f					      endif		; else multiply by 2
    942  f26f		       18		      clc
    943  f270		       65 9c		      adc	temp1	; add them together to get actual memory location offset
    944  f272		       a8		      tay		; put the value in y
    945  f273		       a5 9d		      lda	temp2	; restore on.off.flip value
    946  f275		       60		      rts
    947  f276
    948  f276				   pfread
    949  f276							;x=xvalue, y=yvalue
    950  f276		       20 64 f2 	      jsr	setuppointers
    951  f279		       bd de f2 	      lda	setbyte,x
    952  f27c		       39 a4 00 	      and	playfield,y
    953  f27f		       5d de f2 	      eor	setbyte,x
    954  f282							; beq readzero
    955  f282							; lda #1
    956  f282							; readzero
      0  f282					      RETURN
      1  f282					      ifnconst	bankswitch
      2  f282		       60		      rts
      3  f283				  -	      else
      4  f283				  -	      jmp	BS_return
      5  f283					      endif
    958  f283
    959  f283				   pfpixel
    960  f283							;x=xvalue, y=yvalue, a=0,1,2
    961  f283		       20 64 f2 	      jsr	setuppointers
    962  f286
    963  f286				  -	      ifconst	bankswitch
    964  f286				  -	      lda	temp2	; load on.off.flip value (0,1, or 2)
    965  f286				  -	      beq	pixelon_r	; if "on" go to on
    966  f286				  -	      lsr
    967  f286				  -	      bcs	pixeloff_r	; value is 1 if true
    968  f286				  -	      lda	playfield,y	; if here, it's "flip"
    969  f286				  -	      eor	setbyte,x
    970  f286				  -	      ifconst	superchip
    971  f286				  -	      sta	playfield-128,y
    972  f286				  -	      else
    973  f286				  -	      sta	playfield,y
    974  f286				  -	      endif
    975  f286				  -	      RETURN
    976  f286				  -pixelon_r
    977  f286				  -	      lda	playfield,y
    978  f286				  -	      ora	setbyte,x
    979  f286				  -	      ifconst	superchip
    980  f286				  -	      sta	playfield-128,y
    981  f286				  -	      else
    982  f286				  -	      sta	playfield,y
    983  f286				  -	      endif
    984  f286				  -	      RETURN
    985  f286				  -pixeloff_r
    986  f286				  -	      lda	setbyte,x
    987  f286				  -	      eor	#$ff
    988  f286				  -	      and	playfield,y
    989  f286				  -	      ifconst	superchip
    990  f286				  -	      sta	playfield-128,y
    991  f286				  -	      else
    992  f286				  -	      sta	playfield,y
    993  f286				  -	      endif
    994  f286				  -	      RETURN
    995  f286				  -
    996  f286					      else
    997  f286		       4c b7 f2 	      jmp	plotpoint
    998  f289					      endif
    999  f289
   1000  f289				   pfhline
   1001  f289							;x=xvalue, y=yvalue, a=0,1,2, temp3=endx
   1002  f289		       20 64 f2 	      jsr	setuppointers
   1003  f28c		       4c 96 f2 	      jmp	noinc
   1004  f28f				   keepgoing
   1005  f28f		       e8		      inx
   1006  f290		       8a		      txa
   1007  f291		       29 07		      and	#7
   1008  f293		       d0 01		      bne	noinc
   1009  f295		       c8		      iny
   1010  f296				   noinc
   1011  f296		       20 b7 f2 	      jsr	plotpoint
   1012  f299		       e4 9e		      cpx	temp3
   1013  f29b		       30 f2		      bmi	keepgoing
      0  f29d					      RETURN
      1  f29d					      ifnconst	bankswitch
      2  f29d		       60		      rts
      3  f29e				  -	      else
      4  f29e				  -	      jmp	BS_return
      5  f29e					      endif
   1015  f29e
   1016  f29e				   pfvline
   1017  f29e							;x=xvalue, y=yvalue, a=0,1,2, temp3=endx
   1018  f29e		       20 64 f2 	      jsr	setuppointers
   1019  f2a1		       84 9c		      sty	temp1	; store memory location offset
   1020  f2a3		       e6 9e		      inc	temp3	; increase final x by 1
   1021  f2a5		       a5 9e		      lda	temp3
   1022  f2a7		       0a		      asl
   1023  f2a8					      if	pfwidth=4
   1024  f2a8		       0a		      asl		; multiply by 4
   1025  f2a9					      endif		; else multiply by 2
   1026  f2a9		       85 9e		      sta	temp3	; store it
   1027  f2ab							; Thanks to Michael Rideout for fixing a bug in this code
   1028  f2ab							; right now, temp1=y=starting memory location, temp3=final
   1029  f2ab							; x should equal original x value
   1030  f2ab				   keepgoingy
   1031  f2ab		       20 b7 f2 	      jsr	plotpoint
   1032  f2ae		       c8		      iny
   1033  f2af		       c8		      iny
   1034  f2b0					      if	pfwidth=4
   1035  f2b0		       c8		      iny
   1036  f2b1		       c8		      iny
   1037  f2b2					      endif
   1038  f2b2		       c4 9e		      cpy	temp3
   1039  f2b4		       30 f5		      bmi	keepgoingy
      0  f2b6					      RETURN
      1  f2b6					      ifnconst	bankswitch
      2  f2b6		       60		      rts
      3  f2b7				  -	      else
      4  f2b7				  -	      jmp	BS_return
      5  f2b7					      endif
   1041  f2b7
   1042  f2b7				   plotpoint
   1043  f2b7		       a5 9d		      lda	temp2	; load on.off.flip value (0,1, or 2)
   1044  f2b9		       f0 0d		      beq	pixelon	; if "on" go to on
   1045  f2bb		       4a		      lsr
   1046  f2bc		       b0 14		      bcs	pixeloff	; value is 1 if true
   1047  f2be		       b9 a4 00 	      lda	playfield,y	; if here, it's "flip"
   1048  f2c1		       5d de f2 	      eor	setbyte,x
   1049  f2c4				  -	      ifconst	superchip
   1050  f2c4				  -	      sta	playfield-128,y
   1051  f2c4					      else
   1052  f2c4		       99 a4 00 	      sta	playfield,y
   1053  f2c7					      endif
   1054  f2c7		       60		      rts
   1055  f2c8				   pixelon
   1056  f2c8		       b9 a4 00 	      lda	playfield,y
   1057  f2cb		       1d de f2 	      ora	setbyte,x
   1058  f2ce				  -	      ifconst	superchip
   1059  f2ce				  -	      sta	playfield-128,y
   1060  f2ce					      else
   1061  f2ce		       99 a4 00 	      sta	playfield,y
   1062  f2d1					      endif
   1063  f2d1		       60		      rts
   1064  f2d2				   pixeloff
   1065  f2d2		       bd de f2 	      lda	setbyte,x
   1066  f2d5		       49 ff		      eor	#$ff
   1067  f2d7		       39 a4 00 	      and	playfield,y
   1068  f2da				  -	      ifconst	superchip
   1069  f2da				  -	      sta	playfield-128,y
   1070  f2da					      else
   1071  f2da		       99 a4 00 	      sta	playfield,y
   1072  f2dd					      endif
   1073  f2dd		       60		      rts
   1074  f2de
   1075  f2de				   setbyte
   1076  f2de					      ifnconst	pfcenter
   1077  f2de		       80		      .byte.b	$80
   1078  f2df		       40		      .byte.b	$40
   1079  f2e0		       20		      .byte.b	$20
   1080  f2e1		       10		      .byte.b	$10
   1081  f2e2		       08		      .byte.b	$08
   1082  f2e3		       04		      .byte.b	$04
   1083  f2e4		       02		      .byte.b	$02
   1084  f2e5		       01		      .byte.b	$01
   1085  f2e6					      endif
   1086  f2e6		       01		      .byte.b	$01
   1087  f2e7		       02		      .byte.b	$02
   1088  f2e8		       04		      .byte.b	$04
   1089  f2e9		       08		      .byte.b	$08
   1090  f2ea		       10		      .byte.b	$10
   1091  f2eb		       20		      .byte.b	$20
   1092  f2ec		       40		      .byte.b	$40
   1093  f2ed		       80		      .byte.b	$80
   1094  f2ee		       80		      .byte.b	$80
   1095  f2ef		       40		      .byte.b	$40
   1096  f2f0		       20		      .byte.b	$20
   1097  f2f1		       10		      .byte.b	$10
   1098  f2f2		       08		      .byte.b	$08
   1099  f2f3		       04		      .byte.b	$04
   1100  f2f4		       02		      .byte.b	$02
   1101  f2f5		       01		      .byte.b	$01
   1102  f2f6		       01		      .byte.b	$01
   1103  f2f7		       02		      .byte.b	$02
   1104  f2f8		       04		      .byte.b	$04
   1105  f2f9		       08		      .byte.b	$08
   1106  f2fa		       10		      .byte.b	$10
   1107  f2fb		       20		      .byte.b	$20
   1108  f2fc		       40		      .byte.b	$40
   1109  f2fd		       80		      .byte.b	$80
   1110  f2fe							; Provided under the CC0 license. See the included LICENSE.txt for details.
   1111  f2fe
   1112  f2fe				   pfscroll		;(a=0 left, 1 right, 2 up, 4 down, 6=upup, 12=downdown)
   1113  f2fe		       d0 13		      bne	notleft
   1114  f300							;left
   1115  f300				  -	      ifconst	pfres
   1116  f300				  -	      ldx	#pfres*4
   1117  f300					      else
   1118  f300		       a2 30		      ldx	#48
   1119  f302					      endif
   1120  f302				   leftloop
   1121  f302		       b5 a3		      lda	playfield-1,x
   1122  f304		       4a		      lsr
   1123  f305
   1124  f305				  -	      ifconst	superchip
   1125  f305				  -	      lda	playfield-2,x
   1126  f305				  -	      rol
   1127  f305				  -	      sta	playfield-130,x
   1128  f305				  -	      lda	playfield-3,x
   1129  f305				  -	      ror
   1130  f305				  -	      sta	playfield-131,x
   1131  f305				  -	      lda	playfield-4,x
   1132  f305				  -	      rol
   1133  f305				  -	      sta	playfield-132,x
   1134  f305				  -	      lda	playfield-1,x
   1135  f305				  -	      ror
   1136  f305				  -	      sta	playfield-129,x
   1137  f305					      else
   1138  f305		       36 a2		      rol	playfield-2,x
   1139  f307		       76 a1		      ror	playfield-3,x
   1140  f309		       36 a0		      rol	playfield-4,x
   1141  f30b		       76 a3		      ror	playfield-1,x
   1142  f30d					      endif
   1143  f30d
   1144  f30d		       8a		      txa
   1145  f30e		       cb 04		      sbx	#4
   1146  f310		       d0 f0		      bne	leftloop
      0  f312					      RETURN
      1  f312					      ifnconst	bankswitch
      2  f312		       60		      rts
      3  f313				  -	      else
      4  f313				  -	      jmp	BS_return
      5  f313					      endif
   1148  f313
   1149  f313				   notleft
   1150  f313		       4a		      lsr
   1151  f314		       90 13		      bcc	notright
   1152  f316							;right
   1153  f316
   1154  f316				  -	      ifconst	pfres
   1155  f316				  -	      ldx	#pfres*4
   1156  f316					      else
   1157  f316		       a2 30		      ldx	#48
   1158  f318					      endif
   1159  f318				   rightloop
   1160  f318		       b5 a0		      lda	playfield-4,x
   1161  f31a		       4a		      lsr
   1162  f31b				  -	      ifconst	superchip
   1163  f31b				  -	      lda	playfield-3,x
   1164  f31b				  -	      rol
   1165  f31b				  -	      sta	playfield-131,x
   1166  f31b				  -	      lda	playfield-2,x
   1167  f31b				  -	      ror
   1168  f31b				  -	      sta	playfield-130,x
   1169  f31b				  -	      lda	playfield-1,x
   1170  f31b				  -	      rol
   1171  f31b				  -	      sta	playfield-129,x
   1172  f31b				  -	      lda	playfield-4,x
   1173  f31b				  -	      ror
   1174  f31b				  -	      sta	playfield-132,x
   1175  f31b					      else
   1176  f31b		       36 a1		      rol	playfield-3,x
   1177  f31d		       76 a2		      ror	playfield-2,x
   1178  f31f		       36 a3		      rol	playfield-1,x
   1179  f321		       76 a0		      ror	playfield-4,x
   1180  f323					      endif
   1181  f323		       8a		      txa
   1182  f324		       cb 04		      sbx	#4
   1183  f326		       d0 f0		      bne	rightloop
      0  f328					      RETURN
      1  f328					      ifnconst	bankswitch
      2  f328		       60		      rts
      3  f329				  -	      else
      4  f329				  -	      jmp	BS_return
      5  f329					      endif
   1185  f329
   1186  f329				   notright
   1187  f329		       4a		      lsr
   1188  f32a		       90 49		      bcc	notup
   1189  f32c							;up
   1190  f32c		       4a		      lsr
   1191  f32d		       90 02		      bcc	onedecup
   1192  f32f		       c6 ef		      dec	playfieldpos
   1193  f331				   onedecup
   1194  f331		       c6 ef		      dec	playfieldpos
   1195  f333		       f0 02		      beq	shiftdown
   1196  f335		       10 3d		      bpl	noshiftdown2
   1197  f337				   shiftdown
   1198  f337				  -	      ifconst	pfrowheight
   1199  f337				  -	      lda	#pfrowheight
   1200  f337					      else
   1201  f337					      ifnconst	pfres
   1202  f337		       a9 08		      lda	#8
   1203  f339				  -	      else
   1204  f339				  -	      lda	#(96/pfres)	; try to come close to the real size
   1205  f339					      endif
   1206  f339					      endif
   1207  f339
   1208  f339		       85 ef		      sta	playfieldpos
   1209  f33b		       a5 a7		      lda	playfield+3
   1210  f33d		       85 9f		      sta	temp4
   1211  f33f		       a5 a6		      lda	playfield+2
   1212  f341		       85 9e		      sta	temp3
   1213  f343		       a5 a5		      lda	playfield+1
   1214  f345		       85 9d		      sta	temp2
   1215  f347		       a5 a4		      lda	playfield
   1216  f349		       85 9c		      sta	temp1
   1217  f34b		       a2 00		      ldx	#0
   1218  f34d				   up2
   1219  f34d		       b5 a8		      lda	playfield+4,x
   1220  f34f				  -	      ifconst	superchip
   1221  f34f				  -	      sta	playfield-128,x
   1222  f34f				  -	      lda	playfield+5,x
   1223  f34f				  -	      sta	playfield-127,x
   1224  f34f				  -	      lda	playfield+6,x
   1225  f34f				  -	      sta	playfield-126,x
   1226  f34f				  -	      lda	playfield+7,x
   1227  f34f				  -	      sta	playfield-125,x
   1228  f34f					      else
   1229  f34f		       95 a4		      sta	playfield,x
   1230  f351		       b5 a9		      lda	playfield+5,x
   1231  f353		       95 a5		      sta	playfield+1,x
   1232  f355		       b5 aa		      lda	playfield+6,x
   1233  f357		       95 a6		      sta	playfield+2,x
   1234  f359		       b5 ab		      lda	playfield+7,x
   1235  f35b		       95 a7		      sta	playfield+3,x
   1236  f35d					      endif
   1237  f35d		       8a		      txa
   1238  f35e		       cb fc		      sbx	#252
   1239  f360				  -	      ifconst	pfres
   1240  f360				  -	      cpx	#(pfres-1)*4
   1241  f360					      else
   1242  f360		       e0 2c		      cpx	#44
   1243  f362					      endif
   1244  f362		       d0 e9		      bne	up2
   1245  f364
   1246  f364		       a5 9f		      lda	temp4
   1247  f366
   1248  f366				  -	      ifconst	superchip
   1249  f366				  -	      ifconst	pfres
   1250  f366				  -	      sta	playfield+pfres*4-129
   1251  f366				  -	      lda	temp3
   1252  f366				  -	      sta	playfield+pfres*4-130
   1253  f366				  -	      lda	temp2
   1254  f366				  -	      sta	playfield+pfres*4-131
   1255  f366				  -	      lda	temp1
   1256  f366				  -	      sta	playfield+pfres*4-132
   1257  f366				  -	      else
   1258  f366				  -	      sta	playfield+47-128
   1259  f366				  -	      lda	temp3
   1260  f366				  -	      sta	playfield+46-128
   1261  f366				  -	      lda	temp2
   1262  f366				  -	      sta	playfield+45-128
   1263  f366				  -	      lda	temp1
   1264  f366				  -	      sta	playfield+44-128
   1265  f366				  -	      endif
   1266  f366					      else
   1267  f366				  -	      ifconst	pfres
   1268  f366				  -	      sta	playfield+pfres*4-1
   1269  f366				  -	      lda	temp3
   1270  f366				  -	      sta	playfield+pfres*4-2
   1271  f366				  -	      lda	temp2
   1272  f366				  -	      sta	playfield+pfres*4-3
   1273  f366				  -	      lda	temp1
   1274  f366				  -	      sta	playfield+pfres*4-4
   1275  f366					      else
   1276  f366		       85 d3		      sta	playfield+47
   1277  f368		       a5 9e		      lda	temp3
   1278  f36a		       85 d2		      sta	playfield+46
   1279  f36c		       a5 9d		      lda	temp2
   1280  f36e		       85 d1		      sta	playfield+45
   1281  f370		       a5 9c		      lda	temp1
   1282  f372		       85 d0		      sta	playfield+44
   1283  f374					      endif
   1284  f374					      endif
   1285  f374				   noshiftdown2
      0  f374					      RETURN
      1  f374					      ifnconst	bankswitch
      2  f374		       60		      rts
      3  f375				  -	      else
      4  f375				  -	      jmp	BS_return
      5  f375					      endif
   1287  f375
   1288  f375
   1289  f375				   notup
   1290  f375							;down
   1291  f375		       4a		      lsr
   1292  f376		       b0 02		      bcs	oneincup
   1293  f378		       e6 ef		      inc	playfieldpos
   1294  f37a				   oneincup
   1295  f37a		       e6 ef		      inc	playfieldpos
   1296  f37c		       a5 ef		      lda	playfieldpos
   1297  f37e
   1298  f37e				  -	      ifconst	pfrowheight
   1299  f37e				  -	      cmp	#pfrowheight+1
   1300  f37e					      else
   1301  f37e					      ifnconst	pfres
   1302  f37e		       c9 09		      cmp	#9
   1303  f380				  -	      else
   1304  f380				  -	      cmp	#(96/pfres)+1	; try to come close to the real size
   1305  f380					      endif
   1306  f380					      endif
   1307  f380
   1308  f380		       90 3b		      bcc	noshiftdown
   1309  f382		       a9 01		      lda	#1
   1310  f384		       85 ef		      sta	playfieldpos
   1311  f386
   1312  f386				  -	      ifconst	pfres
   1313  f386				  -	      lda	playfield+pfres*4-1
   1314  f386				  -	      sta	temp4
   1315  f386				  -	      lda	playfield+pfres*4-2
   1316  f386				  -	      sta	temp3
   1317  f386				  -	      lda	playfield+pfres*4-3
   1318  f386				  -	      sta	temp2
   1319  f386				  -	      lda	playfield+pfres*4-4
   1320  f386					      else
   1321  f386		       a5 d3		      lda	playfield+47
   1322  f388		       85 9f		      sta	temp4
   1323  f38a		       a5 d2		      lda	playfield+46
   1324  f38c		       85 9e		      sta	temp3
   1325  f38e		       a5 d1		      lda	playfield+45
   1326  f390		       85 9d		      sta	temp2
   1327  f392		       a5 d0		      lda	playfield+44
   1328  f394					      endif
   1329  f394
   1330  f394		       85 9c		      sta	temp1
   1331  f396
   1332  f396				  -	      ifconst	pfres
   1333  f396				  -	      ldx	#(pfres-1)*4
   1334  f396					      else
   1335  f396		       a2 2c		      ldx	#44
   1336  f398					      endif
   1337  f398				   down2
   1338  f398		       b5 a3		      lda	playfield-1,x
   1339  f39a				  -	      ifconst	superchip
   1340  f39a				  -	      sta	playfield-125,x
   1341  f39a				  -	      lda	playfield-2,x
   1342  f39a				  -	      sta	playfield-126,x
   1343  f39a				  -	      lda	playfield-3,x
   1344  f39a				  -	      sta	playfield-127,x
   1345  f39a				  -	      lda	playfield-4,x
   1346  f39a				  -	      sta	playfield-128,x
   1347  f39a					      else
   1348  f39a		       95 a7		      sta	playfield+3,x
   1349  f39c		       b5 a2		      lda	playfield-2,x
   1350  f39e		       95 a6		      sta	playfield+2,x
   1351  f3a0		       b5 a1		      lda	playfield-3,x
   1352  f3a2		       95 a5		      sta	playfield+1,x
   1353  f3a4		       b5 a0		      lda	playfield-4,x
   1354  f3a6		       95 a4		      sta	playfield,x
   1355  f3a8					      endif
   1356  f3a8		       8a		      txa
   1357  f3a9		       cb 04		      sbx	#4
   1358  f3ab		       d0 eb		      bne	down2
   1359  f3ad
   1360  f3ad		       a5 9f		      lda	temp4
   1361  f3af				  -	      ifconst	superchip
   1362  f3af				  -	      sta	playfield-125
   1363  f3af				  -	      lda	temp3
   1364  f3af				  -	      sta	playfield-126
   1365  f3af				  -	      lda	temp2
   1366  f3af				  -	      sta	playfield-127
   1367  f3af				  -	      lda	temp1
   1368  f3af				  -	      sta	playfield-128
   1369  f3af					      else
   1370  f3af		       85 a7		      sta	playfield+3
   1371  f3b1		       a5 9e		      lda	temp3
   1372  f3b3		       85 a6		      sta	playfield+2
   1373  f3b5		       a5 9d		      lda	temp2
   1374  f3b7		       85 a5		      sta	playfield+1
   1375  f3b9		       a5 9c		      lda	temp1
   1376  f3bb		       85 a4		      sta	playfield
   1377  f3bd					      endif
   1378  f3bd				   noshiftdown
      0  f3bd					      RETURN
      1  f3bd					      ifnconst	bankswitch
      2  f3bd		       60		      rts
      3  f3be				  -	      else
      4  f3be				  -	      jmp	BS_return
      5  f3be					      endif
   1380  f3be							; Provided under the CC0 license. See the included LICENSE.txt for details.
   1381  f3be
   1382  f3be							;standard routines needed for pretty much all games
   1383  f3be							; just the random number generator is left - maybe we should remove this asm file altogether?
   1384  f3be							; repositioning code and score pointer setup moved to overscan
   1385  f3be							; read switches, joysticks now compiler generated (more efficient)
   1386  f3be
   1387  f3be				   randomize
   1388  f3be		       a5 a2		      lda	rand
   1389  f3c0		       4a		      lsr
   1390  f3c1				  -	      ifconst	rand16
   1391  f3c1				  -	      rol	rand16
   1392  f3c1					      endif
   1393  f3c1		       90 02		      bcc	noeor
   1394  f3c3		       49 b4		      eor	#$B4
   1395  f3c5				   noeor
   1396  f3c5		       85 a2		      sta	rand
   1397  f3c7				  -	      ifconst	rand16
   1398  f3c7				  -	      eor	rand16
   1399  f3c7					      endif
      0  f3c7					      RETURN
      1  f3c7					      ifnconst	bankswitch
      2  f3c7		       60		      rts
      3  f3c8				  -	      else
      4  f3c8				  -	      jmp	BS_return
      5  f3c8					      endif
   1401  f3c8							; Provided under the CC0 license. See the included LICENSE.txt for details.
   1402  f3c8
   1403  f3c8				   drawscreen
   1404  f3c8				  -	      ifconst	debugscore
   1405  f3c8				  -	      ldx	#14
   1406  f3c8				  -	      lda	INTIM	; display # cycles left in the score
   1407  f3c8				  -
   1408  f3c8				  -	      ifconst	mincycles
   1409  f3c8				  -	      lda	mincycles
   1410  f3c8				  -	      cmp	INTIM
   1411  f3c8				  -	      lda	mincycles
   1412  f3c8				  -	      bcc	nochange
   1413  f3c8				  -	      lda	INTIM
   1414  f3c8				  -	      sta	mincycles
   1415  f3c8				  -nochange
   1416  f3c8				  -	      endif
   1417  f3c8				  -
   1418  f3c8				  -			; cmp #$2B
   1419  f3c8				  -			; bcs no_cycles_left
   1420  f3c8				  -	      bmi	cycles_left
   1421  f3c8				  -	      ldx	#64
   1422  f3c8				  -	      eor	#$ff	;make negative
   1423  f3c8				  -cycles_left
   1424  f3c8				  -	      stx	scorecolor
   1425  f3c8				  -	      and	#$7f	; clear sign bit
   1426  f3c8				  -	      tax
   1427  f3c8				  -	      lda	scorebcd,x
   1428  f3c8				  -	      sta	score+2
   1429  f3c8				  -	      lda	scorebcd1,x
   1430  f3c8				  -	      sta	score+1
   1431  f3c8				  -	      jmp	done_debugscore
   1432  f3c8				  -scorebcd
   1433  f3c8				  -	      .byte	$00, $64, $28, $92, $56, $20, $84, $48, $12, $76, $40
   1434  f3c8				  -	      .byte	$04, $68, $32, $96, $60, $24, $88, $52, $16, $80, $44
   1435  f3c8				  -	      .byte	$08, $72, $36, $00, $64, $28, $92, $56, $20, $84, $48
   1436  f3c8				  -	      .byte	$12, $76, $40, $04, $68, $32, $96, $60, $24, $88
   1437  f3c8				  -scorebcd1
   1438  f3c8				  -	      .byte	0, 0, 1, 1, 2, 3, 3, 4, 5, 5, 6
   1439  f3c8				  -	      .byte	7, 7, 8, 8, 9, $10, $10, $11, $12, $12, $13
   1440  f3c8				  -	      .byte	$14, $14, $15, $16, $16, $17, $17, $18, $19, $19, $20
   1441  f3c8				  -	      .byte	$21, $21, $22, $23, $23, $24, $24, $25, $26, $26
   1442  f3c8				  -done_debugscore
   1443  f3c8					      endif
   1444  f3c8
   1445  f3c8				  -	      ifconst	debugcycles
   1446  f3c8				  -	      lda	INTIM	; if we go over, it mucks up the background color
   1447  f3c8				  -			; cmp #$2B
   1448  f3c8				  -			; BCC overscan
   1449  f3c8				  -	      bmi	overscan
   1450  f3c8				  -	      sta	COLUBK
   1451  f3c8				  -	      bcs	doneoverscan
   1452  f3c8					      endif
   1453  f3c8
   1454  f3c8				   overscan
   1455  f3c8				  -	      ifconst	interlaced
   1456  f3c8				  -	      PHP
   1457  f3c8				  -	      PLA
   1458  f3c8				  -	      EOR	#4	; flip interrupt bit
   1459  f3c8				  -	      PHA
   1460  f3c8				  -	      PLP
   1461  f3c8				  -	      AND	#4	; isolate the interrupt bit
   1462  f3c8				  -	      TAX		; save it for later
   1463  f3c8					      endif
   1464  f3c8
   1465  f3c8				   overscanloop
   1466  f3c8		       ad 84 02 	      lda	INTIM	;wait for sync
   1467  f3cb		       30 fb		      bmi	overscanloop
   1468  f3cd				   doneoverscan
   1469  f3cd
   1470  f3cd							;do VSYNC
   1471  f3cd
   1472  f3cd				  -	      ifconst	interlaced
   1473  f3cd				  -	      CPX	#4
   1474  f3cd				  -	      BNE	oddframevsync
   1475  f3cd					      endif
   1476  f3cd
   1477  f3cd		       a9 02		      lda	#2
   1478  f3cf		       85 02		      sta	WSYNC
   1479  f3d1		       85 00		      sta	VSYNC
   1480  f3d3		       85 02		      STA	WSYNC
   1481  f3d5		       85 02		      STA	WSYNC
   1482  f3d7		       4a		      lsr
   1483  f3d8		       85 02		      STA	WSYNC
   1484  f3da		       85 00		      STA	VSYNC
   1485  f3dc		       85 01		      sta	VBLANK
   1486  f3de					      ifnconst	overscan_time
   1487  f3de		       a9 a5		      lda	#37+128
   1488  f3e0				  -	      else
   1489  f3e0				  -	      lda	#overscan_time+128
   1490  f3e0					      endif
   1491  f3e0		       8d 96 02 	      sta	TIM64T
   1492  f3e3
   1493  f3e3				  -	      ifconst	interlaced
   1494  f3e3				  -	      jmp	postsync
   1495  f3e3				  -
   1496  f3e3				  -oddframevsync
   1497  f3e3				  -	      sta	WSYNC
   1498  f3e3				  -
   1499  f3e3				  -	      LDA	($80,X)	; 11 waste
   1500  f3e3				  -	      LDA	($80,X)	; 11 waste
   1501  f3e3				  -	      LDA	($80,X)	; 11 waste
   1502  f3e3				  -
   1503  f3e3				  -	      lda	#2
   1504  f3e3				  -	      sta	VSYNC
   1505  f3e3				  -	      sta	WSYNC
   1506  f3e3				  -	      sta	WSYNC
   1507  f3e3				  -	      sta	WSYNC
   1508  f3e3				  -
   1509  f3e3				  -	      LDA	($80,X)	; 11 waste
   1510  f3e3				  -	      LDA	($80,X)	; 11 waste
   1511  f3e3				  -	      LDA	($80,X)	; 11 waste
   1512  f3e3				  -
   1513  f3e3				  -	      lda	#0
   1514  f3e3				  -	      sta	VSYNC
   1515  f3e3				  -	      sta	VBLANK
   1516  f3e3				  -	      ifnconst	overscan_time
   1517  f3e3				  -	      lda	#37+128
   1518  f3e3				  -	      else
   1519  f3e3				  -	      lda	#overscan_time+128
   1520  f3e3				  -	      endif
   1521  f3e3				  -	      sta	TIM64T
   1522  f3e3				  -
   1523  f3e3				  -postsync
   1524  f3e3					      endif
   1525  f3e3
   1526  f3e3				  -	      ifconst	legacy
   1527  f3e3				  -	      if	legacy < 100
   1528  f3e3				  -	      ldx	#4
   1529  f3e3				  -adjustloop
   1530  f3e3				  -	      lda	player0x,x
   1531  f3e3				  -	      sec
   1532  f3e3				  -	      sbc	#14	;?
   1533  f3e3				  -	      sta	player0x,x
   1534  f3e3				  -	      dex
   1535  f3e3				  -	      bpl	adjustloop
   1536  f3e3				  -	      endif
   1537  f3e3					      endif
   1538  f3e3				  -	      if	((<*)>$e9)&&((<*)<$fa)
   1539  f3e3				  -	      repeat	($fa-(<*))
   1540  f3e3				  -	      nop
   1541  f3e3				  -	      repend
   1542  f3e3					      endif
   1543  f3e3		       85 02		      sta	WSYNC
   1544  f3e5		       a2 04		      ldx	#4
      0  f3e7					      SLEEP	3
      1  f3e7				   .CYCLES    SET	3
      2  f3e7
      3  f3e7				  -	      IF	.CYCLES < 2
      4  f3e7				  -	      ECHO	"MACRO ERROR: 'SLEEP': Duration must be > 1"
      5  f3e7				  -	      ERR
      6  f3e7					      ENDIF
      7  f3e7
      8  f3e7					      IF	.CYCLES & 1
      9  f3e7					      IFNCONST	NO_ILLEGAL_OPCODES
     10  f3e7		       04 00		      nop	0
     11  f3e9				  -	      ELSE
     12  f3e9				  -	      bit	VSYNC
     13  f3e9					      ENDIF
     14  f3e9				   .CYCLES    SET	.CYCLES - 3
     15  f3e9					      ENDIF
     16  f3e9
     17  f3e9				  -	      REPEAT	.CYCLES / 2
     18  f3e9				  -	      nop
     19  f3e9					      REPEND
   1546  f3e9				   HorPosLoop		; 5
   1547  f3e9		       b5 80		      lda	player0x,X	;+4 9
   1548  f3eb		       38		      sec		;+2 11
   1549  f3ec				   DivideLoop
   1550  f3ec		       e9 0f		      sbc	#15
   1551  f3ee		       b0 fc		      bcs	DivideLoop	;+4 15
   1552  f3f0		       95 9c		      sta	temp1,X	;+4 19
   1553  f3f2		       95 10		      sta	RESP0,X	;+4 23
   1554  f3f4		       85 02		      sta	WSYNC
   1555  f3f6		       ca		      dex
   1556  f3f7		       10 f0		      bpl	HorPosLoop	;+5 5
   1557  f3f9							; 4
   1558  f3f9
   1559  f3f9		       a2 04		      ldx	#4
   1560  f3fb		       b4 9c		      ldy	temp1,X
   1561  f3fd		       b9 59 f3 	      lda	repostable-256,Y
   1562  f400		       95 20		      sta	HMP0,X	;+14 18
   1563  f402
   1564  f402		       ca		      dex
   1565  f403		       b4 9c		      ldy	temp1,X
   1566  f405		       b9 59 f3 	      lda	repostable-256,Y
   1567  f408		       95 20		      sta	HMP0,X	;+14 32
   1568  f40a
   1569  f40a		       ca		      dex
   1570  f40b		       b4 9c		      ldy	temp1,X
   1571  f40d		       b9 59 f3 	      lda	repostable-256,Y
   1572  f410		       95 20		      sta	HMP0,X	;+14 46
   1573  f412
   1574  f412		       ca		      dex
   1575  f413		       b4 9c		      ldy	temp1,X
   1576  f415		       b9 59 f3 	      lda	repostable-256,Y
   1577  f418		       95 20		      sta	HMP0,X	;+14 60
   1578  f41a
   1579  f41a		       ca		      dex
   1580  f41b		       b4 9c		      ldy	temp1,X
   1581  f41d		       b9 59 f3 	      lda	repostable-256,Y
   1582  f420		       95 20		      sta	HMP0,X	;+14 74
   1583  f422
   1584  f422		       85 02		      sta	WSYNC
   1585  f424
   1586  f424		       85 2a		      sta	HMOVE	;+3 3
   1587  f426
   1588  f426
   1589  f426				  -	      ifconst	legacy
   1590  f426				  -	      if	legacy < 100
   1591  f426				  -	      ldx	#4
   1592  f426				  -adjustloop2
   1593  f426				  -	      lda	player0x,x
   1594  f426				  -	      clc
   1595  f426				  -	      adc	#14	;?
   1596  f426				  -	      sta	player0x,x
   1597  f426				  -	      dex
   1598  f426				  -	      bpl	adjustloop2
   1599  f426				  -	      endif
   1600  f426					      endif
   1601  f426
   1602  f426
   1603  f426
   1604  f426
   1605  f426							;set score pointers
   1606  f426		       a7 95		      lax	score+2
   1607  f428		       20 59 f4 	      jsr	scorepointerset
   1608  f42b		       84 9b		      sty	scorepointers+5
   1609  f42d		       86 98		      stx	scorepointers+2
   1610  f42f		       a7 94		      lax	score+1
   1611  f431		       20 59 f4 	      jsr	scorepointerset
   1612  f434		       84 9a		      sty	scorepointers+4
   1613  f436		       86 97		      stx	scorepointers+1
   1614  f438		       a7 93		      lax	score
   1615  f43a		       20 59 f4 	      jsr	scorepointerset
   1616  f43d		       84 99		      sty	scorepointers+3
   1617  f43f		       86 96		      stx	scorepointers
   1618  f441
   1619  f441				   vblk
   1620  f441							; run possible vblank bB code
   1621  f441				  -	      ifconst	vblank_bB_code
   1622  f441				  -	      jsr	vblank_bB_code
   1623  f441					      endif
   1624  f441				   vblk2
   1625  f441		       ad 84 02 	      LDA	INTIM
   1626  f444		       30 fb		      bmi	vblk2
   1627  f446		       4c 34 f0 	      jmp	kernel
   1628  f449
   1629  f449
   1630  f449		       80 70 60 50*	      .byte.b	$80,$70,$60,$50,$40,$30,$20,$10,$00
   1631  f452		       f0 e0 d0 c0*	      .byte.b	$F0,$E0,$D0,$C0,$B0,$A0,$90
   1632  f459				   repostable
   1633  f459
   1634  f459				   scorepointerset
   1635  f459		       29 0f		      and	#$0F
   1636  f45b		       0a		      asl
   1637  f45c		       0a		      asl
   1638  f45d		       0a		      asl
   1639  f45e		       69 9c		      adc	#<scoretable
   1640  f460		       a8		      tay
   1641  f461		       8a		      txa
   1642  f462							; and #$F0
   1643  f462							; lsr
   1644  f462		       4b f0		      asr	#$F0
   1645  f464		       69 9c		      adc	#<scoretable
   1646  f466		       aa		      tax
   1647  f467		       60		      rts
   1648  f468							; Provided under the CC0 license. See the included LICENSE.txt for details.
   1649  f468
   1650  f468				   minikernel		; display up to 6 lives on screen
   1651  f468		       85 02		      sta	WSYNC
      0  f46a					      sleep	10	; can we optimize this?
      1  f46a				   .CYCLES    SET	10
      2  f46a
      3  f46a				  -	      IF	.CYCLES < 2
      4  f46a				  -	      ECHO	"MACRO ERROR: 'SLEEP': Duration must be > 1"
      5  f46a				  -	      ERR
      6  f46a					      ENDIF
      7  f46a
      8  f46a				  -	      IF	.CYCLES & 1
      9  f46a				  -	      IFNCONST	NO_ILLEGAL_OPCODES
     10  f46a				  -	      nop	0
     11  f46a				  -	      ELSE
     12  f46a				  -	      bit	VSYNC
     13  f46a				  -	      ENDIF
     14  f46a				  -.CYCLES    SET	.CYCLES - 3
     15  f46a					      ENDIF
     16  f46a
     17  f46a					      REPEAT	.CYCLES / 2
     18  f46a		       ea		      nop
     17  f46a					      REPEND
     18  f46b		       ea		      nop
     17  f46b					      REPEND
     18  f46c		       ea		      nop
     17  f46c					      REPEND
     18  f46d		       ea		      nop
     17  f46d					      REPEND
     18  f46e		       ea		      nop
     19  f46f					      REPEND
   1653  f46f		       a9 00		      lda	#0
   1654  f471		       a0 07		      ldy	#7
   1655  f473		       85 25		      sta	VDELP0
   1656  f475		       85 26		      sta	VDELP1
   1657  f477					      ifnconst	lives_compact
   1658  f477				  -	      ifnconst	lives_centered
   1659  f477				  -	      sta	RESP0
   1660  f477					      endif
   1661  f477		       ad f3 00 	      lda.w	lives
   1662  f47a				  -	      ifnconst	lives_centered
   1663  f47a				  -	      sta	RESP1
   1664  f47a					      endif
   1665  f47a		       4a		      lsr
   1666  f47b		       4a		      lsr
   1667  f47c		       4a		      lsr
   1668  f47d		       4a		      lsr
   1669  f47e					      ifconst	lives_centered
   1670  f47e		       85 10		      sta	RESP0
   1671  f480					      endif
   1672  f480		       4a		      lsr
   1673  f481		       aa		      tax
   1674  f482					      ifconst	lives_centered
   1675  f482		       85 11		      sta	RESP1
   1676  f484					      endif
   1677  f484		       bd b4 f4 	      lda	lifenusiz0table,x
   1678  f487		       85 04		      sta	NUSIZ0
   1679  f489		       bd b3 f4 	      lda	lifenusiz1table,x
   1680  f48c		       85 05		      sta	NUSIZ1
   1681  f48e		       a5 f4		      lda	lifecolor
   1682  f490		       85 06		      sta	COLUP0
   1683  f492		       85 07		      sta	COLUP1
   1684  f494		       a9 b0		      lda	#$b0
   1685  f496		       85 20		      sta	HMP0
   1686  f498
   1687  f498				  -	      else
   1688  f498				  -
   1689  f498				  -	      ifnconst	lives_centered
   1690  f498				  -	      sta.w	RESP0
   1691  f498				  -	      sta	RESP1
   1692  f498				  -	      endif
   1693  f498				  -	      lda	lives
   1694  f498				  -	      lsr
   1695  f498				  -	      lsr
   1696  f498				  -	      lsr
   1697  f498				  -	      lsr
   1698  f498				  -	      lsr
   1699  f498				  -	      tax
   1700  f498				  -	      lda	lifenusiz0table,x
   1701  f498				  -	      ifconst	lives_centered
   1702  f498				  -	      sta	RESP0
   1703  f498				  -	      sta	RESP1
   1704  f498				  -	      sta.w	NUSIZ0
   1705  f498				  -	      else
   1706  f498				  -	      sta	NUSIZ0
   1707  f498				  -	      endif
   1708  f498				  -	      lda	lifenusiz1table,x
   1709  f498				  -	      sta	NUSIZ1
   1710  f498				  -	      lda	lifecolor
   1711  f498				  -	      sta	COLUP0
   1712  f498				  -	      sta	COLUP1
   1713  f498				  -	      lda	#$10
   1714  f498				  -	      sta	HMP1
   1715  f498				  -
   1716  f498					      endif
   1717  f498
   1718  f498		       85 2a		      sta	HMOVE	; cycle 73
   1719  f49a
   1720  f49a				   lifeloop
   1721  f49a		       e0 00		      cpx	#0
   1722  f49c		       f0 0a		      beq	skipall
   1723  f49e		       b1 f2		      lda	(lifepointer),y
   1724  f4a0		       85 1b		      sta	GRP0
   1725  f4a2		       e0 01		      cpx	#1
   1726  f4a4		       f0 02		      beq	skipall
   1727  f4a6		       85 1c		      sta	GRP1
   1728  f4a8				   skipall
   1729  f4a8		       88		      dey
   1730  f4a9		       85 02		      sta	WSYNC
   1731  f4ab		       10 ed		      bpl	lifeloop
   1732  f4ad		       c8		      iny
   1733  f4ae		       84 1b		      sty	GRP0
   1734  f4b0		       84 1c		      sty	GRP1
   1735  f4b2		       60		      rts
   1736  f4b3
   1737  f4b3				  -	      if	(<*) > $F5
   1738  f4b3				  -	      align	256
   1739  f4b3					      endif
   1740  f4b3				  -	      ifconst	lives_compact
   1741  f4b3				  -lifenusiz1table
   1742  f4b3				  -	      .byte	0
   1743  f4b3				  -lifenusiz0table
   1744  f4b3				  -	      .byte	0,0,0,1,1,3,3,3
   1745  f4b3					      else
   1746  f4b3				   lifenusiz1table
   1747  f4b3		       00		      .byte.b	0
   1748  f4b4				   lifenusiz0table
   1749  f4b4		       00 00 00 02*	      .byte.b	0,0,0,2,2,6,6,6
   1750  f4bc					      endif
   1751  f4bc				   game
   1752  f4bc				   .
   1753  f4bc							;;line 1;;
   1754  f4bc
   1755  f4bc				   .
   1756  f4bc							;;line 2;;
   1757  f4bc
   1758  f4bc				   .L00 		;;line 3;;  include 6lives.asm
   1759  f4bc
   1760  f4bc				   .
   1761  f4bc							;;line 4;;
   1762  f4bc
   1763  f4bc				   .L01 		;;line 5;;  set kernel_options pfcolors pfheights
   1764  f4bc
   1765  f4bc				   .
   1766  f4bc							;;line 6;;
   1767  f4bc
   1768  f4bc				   .L02 		;;line 7;;  scorecolor = $00
   1769  f4bc
   1770  f4bc		       a9 00		      LDA	#$00
   1771  f4be		       85 a3		      STA	scorecolor
   1772  f4c0				   .L03 		;;line 8;;  pfheights:
   1773  f4c0
   1774  f4c0		       a9 04		      lda	# 4
   1775  f4c2		       85 ef		      sta	playfieldpos
   1776  f4c4				   .
   1777  f4c4							;;line 21;;
   1778  f4c4
   1779  f4c4				   .L04 		;;line 22;;  pfcolors:
   1780  f4c4
   1781  f4c4		       a9 38		      lda	# $38
   1782  f4c6		       85 08		      sta	COLUPF
   1783  f4c8				   .
   1784  f4c8							;;line 37;;
   1785  f4c8
   1786  f4c8				   .
   1787  f4c8							;;line 38;;
   1788  f4c8
   1789  f4c8				   .L05 		;;line 39;;  dim _BitOp_01 = y
   1790  f4c8
   1791  f4c8				   .L06 		;;line 40;;  dim _BitOp_P0_M0_Dir = g
   1792  f4c8
   1793  f4c8				   .L07 		;;line 41;;  dim _BitOp_P1_M1_Dir = h
   1794  f4c8
   1795  f4c8				   .L08 		;;line 42;;  dim _Bit0_P0_Dir_Up = g
   1796  f4c8
   1797  f4c8				   .L09 		;;line 43;;  dim _Bit1_P0_Dir_Down = g
   1798  f4c8
   1799  f4c8				   .L010		;;line 44;;  dim _Bit2_P0_Dir_Left = g
   1800  f4c8
   1801  f4c8				   .L011		;;line 45;;  dim _Bit3_P0_Dir_Right = g
   1802  f4c8
   1803  f4c8				   .L012		;;line 46;;  dim _Bit4_M0_Dir_Up = g
   1804  f4c8
   1805  f4c8				   .L013		;;line 47;;  dim _Bit5_M0_Dir_Down = g
   1806  f4c8
   1807  f4c8				   .L014		;;line 48;;  dim _Bit6_M0_Dir_Left = g
   1808  f4c8
   1809  f4c8				   .L015		;;line 49;;  dim _Bit7_M0_Dir_Right = g
   1810  f4c8
   1811  f4c8				   .L016		;;line 50;;  dim _Bit0_P1_Dir_Up = h
   1812  f4c8
   1813  f4c8				   .L017		;;line 51;;  dim _Bit1_P1_Dir_Down = h
   1814  f4c8
   1815  f4c8				   .L018		;;line 52;;  dim _Bit2_P1_Dir_Left = h
   1816  f4c8
   1817  f4c8				   .L019		;;line 53;;  dim _Bit3_P1_Dir_Right = h
   1818  f4c8
   1819  f4c8				   .L020		;;line 54;;  dim _Bit4_M1_Dir_Up = h
   1820  f4c8
   1821  f4c8				   .L021		;;line 55;;  dim _Bit5_M1_Dir_Down = h
   1822  f4c8
   1823  f4c8				   .L022		;;line 56;;  dim _Bit6_M1_Dir_Left = h
   1824  f4c8
   1825  f4c8				   .L023		;;line 57;;  dim _Bit7_M1_Dir_Right = h
   1826  f4c8
   1827  f4c8				   .L024		;;line 58;;  dim _Bit5_B_Direction_X = j
   1828  f4c8
   1829  f4c8				   .L025		;;line 59;;  dim _Bit6_B_Direction_Y = j
   1830  f4c8
   1831  f4c8				   .L026		;;line 60;;  dim statusbarcolor = $00
   1832  f4c8
   1833  f4c8				   .L027		;;line 61;;  dim sound_duration = k
   1834  f4c8
   1835  f4c8				   .L028		;;line 62;;  dim _Bit0_Reset_Restrainer = y
   1836  f4c8
   1837  f4c8				   .L029		;;line 63;;  dim _Bit7_M0_Moving = y
   1838  f4c8
   1839  f4c8				   .L030		;;line 64;;  dim _Bit7_M1_Moving = z
   1840  f4c8
   1841  f4c8				   .L031		;;line 65;;  dim _Ball_Velocity = ballx.e
   1842  f4c8
   1843  f4c8				   .L032		;;line 66;;  dim _Ball_Position_y = bally.f
   1844  f4c8
   1845  f4c8				   .L033		;;line 67;;  dim _Ball_Direction = p.q
   1846  f4c8
   1847  f4c8				   .
   1848  f4c8							;;line 68;;
   1849  f4c8
   1850  f4c8				   .
   1851  f4c8							;;line 69;;
   1852  f4c8
   1853  f4c8				   .
   1854  f4c8							;;line 70;;
   1855  f4c8
   1856  f4c8				   .L034		;;line 71;;  dim lives_centered = 0
   1857  f4c8
   1858  f4c8				   .
   1859  f4c8							;;line 72;;
   1860  f4c8
   1861  f4c8				   .
   1862  f4c8							;;line 73;;
   1863  f4c8
   1864  f4c8				   .L035		;;line 74;;  const _P_Edge_Top = 9
   1865  f4c8
   1866  f4c8				   .L036		;;line 75;;  const _P_Edge_Bottom = 88
   1867  f4c8
   1868  f4c8				   .L037		;;line 76;;  const _P_Edge_Left = 1
   1869  f4c8
   1870  f4c8				   .L038		;;line 77;;  const _P_Edge_Right = 153
   1871  f4c8
   1872  f4c8				   .
   1873  f4c8							;;line 78;;
   1874  f4c8
   1875  f4c8				   .L039		;;line 79;;  const _M_Edge_Top = 2
   1876  f4c8
   1877  f4c8				   .L040		;;line 80;;  const _M_Edge_Bottom = 88
   1878  f4c8
   1879  f4c8				   .L041		;;line 81;;  const _M_Edge_Left = 0
   1880  f4c8
   1881  f4c8				   .L042		;;line 82;;  const _M_Edge_Right = 148
   1882  f4c8
   1883  f4c8				   .
   1884  f4c8							;;line 83;;
   1885  f4c8
   1886  f4c8				   .L043		;;line 84;;  const _B_Edge_Top = 4
   1887  f4c8
   1888  f4c8				   .L044		;;line 85;;  const _B_Edge_Bottom = 85
   1889  f4c8
   1890  f4c8				   .L045		;;line 86;;  const _B_Edge_Left = 18
   1891  f4c8
   1892  f4c8				   .L046		;;line 87;;  const _B_Edge_Right = 134
   1893  f4c8
   1894  f4c8				   .L047		;;line 88;;  const pfscore = 1
   1895  f4c8
   1896  f4c8				   .L048		;;line 89;;  const lives2 = 3
   1897  f4c8
   1898  f4c8				   .
   1899  f4c8							;;line 90;;
   1900  f4c8
   1901  f4c8				   .__Start_Restart
   1902  f4c8							;;line 91;; __Start_Restart
   1903  f4c8
   1904  f4c8				   .
   1905  f4c8							;;line 92;;
   1906  f4c8
   1907  f4c8				   .L049		;;line 93;;  AUDV0 = 1  :  AUDV1 = 0
   1908  f4c8
   1909  f4c8		       a9 01		      LDA	#1
   1910  f4ca		       85 19		      STA	AUDV0
   1911  f4cc		       a9 00		      LDA	#0
   1912  f4ce		       85 1a		      STA	AUDV1
   1913  f4d0				   .
   1914  f4d0							;;line 94;;
   1915  f4d0
   1916  f4d0				   .L050		;;line 95;;  dim _Bit0_Left_Selection = p
   1917  f4d0
   1918  f4d0				   .L051		;;line 96;;  dim _Bit1_Right_Selection = p
   1919  f4d0
   1920  f4d0				   .
   1921  f4d0							;;line 97;;
   1922  f4d0
   1923  f4d0				   .L052		;;line 98;;  a = 3  :	b = 3  :  c = 200  :  d = 0  :	e = 0  :  f = 0  :  g = 0  :  h = 0  :	i = 0
   1924  f4d0
   1925  f4d0		       a9 03		      LDA	#3
   1926  f4d2		       85 d4		      STA	a
   1927  f4d4		       85 d5		      STA	b
   1928  f4d6		       a9 c8		      LDA	#200
   1929  f4d8		       85 d6		      STA	c
   1930  f4da		       a9 00		      LDA	#0
   1931  f4dc		       85 d7		      STA	d
   1932  f4de		       85 d8		      STA	e
   1933  f4e0		       85 d9		      STA	f
   1934  f4e2		       85 da		      STA	g
   1935  f4e4		       85 db		      STA	h
   1936  f4e6		       85 dc		      STA	i
   1937  f4e8				   .L053		;;line 99;;  j = 0  :	k = 1  :  l = $3e :  m = $9E  :  n = 0	:  o = 0  :  p = 0  :  q = 0  :  r = 0
   1938  f4e8
   1939  f4e8		       a9 00		      LDA	#0
   1940  f4ea		       85 dd		      STA	j
   1941  f4ec		       a9 01		      LDA	#1
   1942  f4ee		       85 de		      STA	k
   1943  f4f0		       a9 3e		      LDA	#$3e
   1944  f4f2		       85 df		      STA	l
   1945  f4f4		       a9 9e		      LDA	#$9E
   1946  f4f6		       85 e0		      STA	m
   1947  f4f8		       a9 00		      LDA	#0
   1948  f4fa		       85 e1		      STA	n
   1949  f4fc		       85 e2		      STA	o
   1950  f4fe		       85 e3		      STA	p
   1951  f500		       85 e4		      STA	q
   1952  f502		       85 e5		      STA	r
   1953  f504				   .L054		;;line 100;;  s = 0  :  t = 0	:  u = 0  :  v = 0  :  w = 0  :  x = 0	:  y = 0  :  z = 0
   1954  f504
   1955  f504		       a9 00		      LDA	#0
   1956  f506		       85 e6		      STA	s
   1957  f508		       85 e7		      STA	t
   1958  f50a		       85 e8		      STA	u
   1959  f50c		       85 e9		      STA	v
   1960  f50e		       85 ea		      STA	w
   1961  f510		       85 eb		      STA	x
   1962  f512		       85 ec		      STA	y
   1963  f514		       85 ed		      STA	z
   1964  f516				   .
   1965  f516							;;line 101;;
   1966  f516
   1967  f516				   .
   1968  f516							;;line 102;;
   1969  f516
   1970  f516				   .
   1971  f516							;;line 103;;
   1972  f516
   1973  f516				   .
   1974  f516							;;line 104;;
   1975  f516
   1976  f516				   .L055		;;line 105;;  player0x = 15 :	player0y = 60
   1977  f516
   1978  f516		       a9 0f		      LDA	#15
   1979  f518		       85 80		      STA	player0x
   1980  f51a		       a9 3c		      LDA	#60
   1981  f51c		       85 85		      STA	player0y
   1982  f51e				   .L056		;;line 106;;  player1x = 130 :  player1y = 60
   1983  f51e
   1984  f51e		       a9 82		      LDA	#130
   1985  f520		       85 81		      STA	player1x
   1986  f522		       a9 3c		      LDA	#60
   1987  f524		       85 86		      STA	player1y
   1988  f526				   .
   1989  f526							;;line 107;;
   1990  f526
   1991  f526				   .
   1992  f526							;;line 108;;
   1993  f526
   1994  f526				   .L057		;;line 109;;  COLUPF = $80
   1995  f526
   1996  f526		       a9 80		      LDA	#$80
   1997  f528		       85 08		      STA	COLUPF
   1998  f52a				   .L058		;;line 110;;  COLUBK = $0
   1999  f52a
   2000  f52a		       a9 00		      LDA	#$0
   2001  f52c		       85 09		      STA	COLUBK
   2002  f52e				   .L059		;;line 111;;  CTRLPF = $21
   2003  f52e
   2004  f52e		       a9 21		      LDA	#$21
   2005  f530		       85 0a		      STA	CTRLPF
   2006  f532				   .
   2007  f532							;;line 112;;
   2008  f532
   2009  f532				   .L060		;;line 113;;  missile0x = 200	:  missile0y = 200
   2010  f532
   2011  f532		       a9 c8		      LDA	#200
   2012  f534		       85 82		      STA	missile0x
   2013  f536		       85 91		      STA	missile0y
   2014  f538				   .L061		;;line 114;;  missile1x = 200	:  missile1y = 200
   2015  f538
   2016  f538		       a9 c8		      LDA	#200
   2017  f53a		       85 83		      STA	missile1x
   2018  f53c		       85 88		      STA	missile1y
   2019  f53e				   .L062		;;line 115;;  NUSIZ0 = %00000001  :  missile0height = 1  :  missile1height = 1
   2020  f53e
   2021  f53e		       a9 01		      LDA	#%00000001
   2022  f540		       85 04		      STA	NUSIZ0
   2023  f542		       a9 01		      LDA	#1
   2024  f544		       85 90		      STA	missile0height
   2025  f546		       85 87		      STA	missile1height
   2026  f548				   .
   2027  f548							;;line 116;;
   2028  f548
   2029  f548				   .
   2030  f548							;;line 117;;
   2031  f548
   2032  f548				   .
   2033  f548							;;line 118;;
   2034  f548
   2035  f548				   .
   2036  f548							;;line 119;;
   2037  f548
   2038  f548				   .
   2039  f548							;;line 120;;
   2040  f548
   2041  f548				   .
   2042  f548							;;line 121;;
   2043  f548
   2044  f548				   .
   2045  f548							;;line 122;;
   2046  f548
   2047  f548				   .
   2048  f548							;;line 123;;
   2049  f548
   2050  f548				   .
   2051  f548							;;line 124;;
   2052  f548
   2053  f548				   .
   2054  f548							;;line 125;;
   2055  f548
   2056  f548				   .
   2057  f548							;;line 126;;
   2058  f548
   2059  f548				   .L063		;;line 127;;  _Bit0_Reset_Restrainer{0} = 1
   2060  f548
   2061  f548		       a5 ec		      LDA	_Bit0_Reset_Restrainer
   2062  f54a		       09 01		      ORA	#1
   2063  f54c		       85 ec		      STA	_Bit0_Reset_Restrainer
   2064  f54e				   .
   2065  f54e							;;line 128;;
   2066  f54e
   2067  f54e				   .
   2068  f54e							;;line 129;;
   2069  f54e
   2070  f54e				   .
   2071  f54e							;;line 130;;
   2072  f54e
   2073  f54e				   .L064		;;line 131;;  player0:
   2074  f54e
   2075  f54e		       a2 80		      LDX	#<playerL064_0
   2076  f550		       86 8a		      STX	player0pointerlo
   2077  f552		       a9 fa		      LDA	#>playerL064_0
   2078  f554		       85 8b		      STA	player0pointerhi
   2079  f556		       a9 0b		      LDA	#11
   2080  f558		       85 8e		      STA	player0height
   2081  f55a				   .
   2082  f55a							;;line 145;;
   2083  f55a
   2084  f55a				   .L065		;;line 146;;  player1:
   2085  f55a
   2086  f55a		       a2 8c		      LDX	#<playerL065_1
   2087  f55c		       86 8c		      STX	player1pointerlo
   2088  f55e		       a9 fa		      LDA	#>playerL065_1
   2089  f560		       85 8d		      STA	player1pointerhi
   2090  f562		       a9 0b		      LDA	#11
   2091  f564		       85 8f		      STA	player1height
   2092  f566				   .
   2093  f566							;;line 160;;
   2094  f566
   2095  f566				   .L066		;;line 161;;  lives = 96
   2096  f566
   2097  f566		       a9 60		      LDA	#96
   2098  f568		       85 f3		      STA	lives
   2099  f56a				   .
   2100  f56a							;;line 162;;
   2101  f56a
   2102  f56a				   .L067		;;line 163;;  lives:
   2103  f56a
   2104  f56a		       a9 98		      LDA	#<lives__L067
   2105  f56c		       85 f2		      STA	lifepointer
   2106  f56e		       a5 f3		      LDA	lifepointer+1
   2107  f570		       29 e0		      AND	#$E0
   2108  f572		       09 1a		      ORA	#(>lives__L067)&($1F)
   2109  f574		       85 f3		      STA	lifepointer+1
   2110  f576				   .
   2111  f576							;;line 173;;
   2112  f576
   2113  f576				   .
   2114  f576							;;line 174;;
   2115  f576
   2116  f576				   .L068		;;line 175;;  playfield:
   2117  f576
   2118  f576				  -	      ifconst	pfres
   2119  f576				  -	      ldx	#(11>pfres)*(pfres*pfwidth-1)+(11<=pfres)*43
   2120  f576					      else
   2121  f576		       a2 2b		      ldx	#((11*pfwidth-1)*((11*pfwidth-1)<47))+(47*((11*pfwidth-1)>=47))
   2122  f578					      endif
   2123  f578		       4c a7 f5 	      jmp	pflabel0
   2124  f57b				   PF_data0
   2125  f57b		       83 03		      .byte.b	%10000011, %00000011
   2126  f57d					      if	(pfwidth>2)
   2127  f57d		       00 80		      .byte.b	%00000000, %10000000
   2128  f57f					      endif
   2129  f57f		       82 00		      .byte.b	%10000010, %00000000
   2130  f581					      if	(pfwidth>2)
   2131  f581		       00 80		      .byte.b	%00000000, %10000000
   2132  f583					      endif
   2133  f583		       83 00		      .byte.b	%10000011, %00000000
   2134  f585					      if	(pfwidth>2)
   2135  f585		       00 80		      .byte.b	%00000000, %10000000
   2136  f587					      endif
   2137  f587		       82 00		      .byte.b	%10000010, %00000000
   2138  f589					      if	(pfwidth>2)
   2139  f589		       00 80		      .byte.b	%00000000, %10000000
   2140  f58b					      endif
   2141  f58b		       82 00		      .byte.b	%10000010, %00000000
   2142  f58d					      if	(pfwidth>2)
   2143  f58d		       00 80		      .byte.b	%00000000, %10000000
   2144  f58f					      endif
   2145  f58f		       80 00		      .byte.b	%10000000, %00000000
   2146  f591					      if	(pfwidth>2)
   2147  f591		       00 80		      .byte.b	%00000000, %10000000
   2148  f593					      endif
   2149  f593		       80 00		      .byte.b	%10000000, %00000000
   2150  f595					      if	(pfwidth>2)
   2151  f595		       00 80		      .byte.b	%00000000, %10000000
   2152  f597					      endif
   2153  f597		       80 00		      .byte.b	%10000000, %00000000
   2154  f599					      if	(pfwidth>2)
   2155  f599		       00 80		      .byte.b	%00000000, %10000000
   2156  f59b					      endif
   2157  f59b		       80 00		      .byte.b	%10000000, %00000000
   2158  f59d					      if	(pfwidth>2)
   2159  f59d		       00 80		      .byte.b	%00000000, %10000000
   2160  f59f					      endif
   2161  f59f		       80 00		      .byte.b	%10000000, %00000000
   2162  f5a1					      if	(pfwidth>2)
   2163  f5a1		       00 80		      .byte.b	%00000000, %10000000
   2164  f5a3					      endif
   2165  f5a3		       80 00		      .byte.b	%10000000, %00000000
   2166  f5a5					      if	(pfwidth>2)
   2167  f5a5		       00 80		      .byte.b	%00000000, %10000000
   2168  f5a7					      endif
   2169  f5a7				   pflabel0
   2170  f5a7		       bd 7b f5 	      lda	PF_data0,x
   2171  f5aa		       95 a4		      sta	playfield,x
   2172  f5ac		       ca		      dex
   2173  f5ad		       10 f8		      bpl	pflabel0
   2174  f5af				   .__Ball_Spawn_Lag_Loop
   2175  f5af							;;line 188;; __Ball_Spawn_Lag_Loop
   2176  f5af
   2177  f5af				   .L069		;;line 189;;  ballheight = 0
   2178  f5af
   2179  f5af		       a9 00		      LDA	#0
   2180  f5b1		       85 92		      STA	ballheight
   2181  f5b3				   .L070		;;line 190;;  temp6 = _Ball_Velocity
   2182  f5b3
   2183  f5b3		       a5 84		      LDA	_Ball_Velocity
   2184  f5b5		       85 a1		      STA	temp6
   2185  f5b7				   .L071		;;line 191;;  c = c - 1
   2186  f5b7
   2187  f5b7		       c6 d6		      DEC	c
   2188  f5b9				   .L072		;;line 192;;  if n  >	0 then AUDV0 = n  :  AUDC0 = 8	:  AUDF0 = 28  :  COLUBK = n  :  n = n - 1 else AUDV0 = 0  :  AUDV1 = 0
   2189  f5b9
   2190  f5b9		       a9 00		      LDA	#0
   2191  f5bb		       c5 e1		      CMP	n
   2192  f5bd		       b0 15		      BCS	.skipL072
   2193  f5bf				   .condpart0
   2194  f5bf		       a5 e1		      LDA	n
   2195  f5c1		       85 19		      STA	AUDV0
   2196  f5c3		       a9 08		      LDA	#8
   2197  f5c5		       85 15		      STA	AUDC0
   2198  f5c7		       a9 1c		      LDA	#28
   2199  f5c9		       85 17		      STA	AUDF0
   2200  f5cb		       a5 e1		      LDA	n
   2201  f5cd		       85 09		      STA	COLUBK
   2202  f5cf		       c6 e1		      DEC	n
   2203  f5d1		       4c da f5 	      jmp	.skipelse0
   2204  f5d4				   .skipL072
   2205  f5d4		       a9 00		      LDA	#0
   2206  f5d6		       85 19		      STA	AUDV0
   2207  f5d8		       85 1a		      STA	AUDV1
   2208  f5da				   .skipelse0
   2209  f5da				   .L073		;;line 193;;  drawscreen
   2210  f5da
   2211  f5da		       20 c8 f3 	      jsr	drawscreen
   2212  f5dd				   .L074		;;line 194;;  if c > 0  &&  a > 0 then goto __Ball_Spawn_Lag_Loop
   2213  f5dd
   2214  f5dd		       a9 00		      LDA	#0
   2215  f5df		       c5 d6		      CMP	c
   2216  f5e1		       b0 09		      BCS	.skipL074
   2217  f5e3				   .condpart1
   2218  f5e3		       a9 00		      LDA	#0
   2219  f5e5		       c5 d4		      CMP	a
   2220  f5e7		       b0 03		      BCS	.skip1then
   2221  f5e9				   .condpart2
   2222  f5e9		       4c af f5 	      jmp	.__Ball_Spawn_Lag_Loop
   2223  f5ec
   2224  f5ec				   .skip1then
   2225  f5ec				   .skipL074
   2226  f5ec				   .L075		;;line 195;;  c = 20
   2227  f5ec
   2228  f5ec		       a9 14		      LDA	#20
   2229  f5ee		       85 d6		      STA	c
   2230  f5f0				   .L076		;;line 196;;  playfield:
   2231  f5f0
   2232  f5f0				  -	      ifconst	pfres
   2233  f5f0				  -	      ldx	#(11>pfres)*(pfres*pfwidth-1)+(11<=pfres)*43
   2234  f5f0					      else
   2235  f5f0		       a2 2b		      ldx	#((11*pfwidth-1)*((11*pfwidth-1)<47))+(47*((11*pfwidth-1)>=47))
   2236  f5f2					      endif
   2237  f5f2		       4c 21 f6 	      jmp	pflabel1
   2238  f5f5				   PF_data1
   2239  f5f5		       ff ff		      .byte.b	%11111111, %11111111
   2240  f5f7					      if	(pfwidth>2)
   2241  f5f7		       ff ff		      .byte.b	%11111111, %11111111
   2242  f5f9					      endif
   2243  f5f9		       00 00		      .byte.b	%00000000, %00000000
   2244  f5fb					      if	(pfwidth>2)
   2245  f5fb		       00 00		      .byte.b	%00000000, %00000000
   2246  f5fd					      endif
   2247  f5fd		       00 00		      .byte.b	%00000000, %00000000
   2248  f5ff					      if	(pfwidth>2)
   2249  f5ff		       00 00		      .byte.b	%00000000, %00000000
   2250  f601					      endif
   2251  f601		       00 00		      .byte.b	%00000000, %00000000
   2252  f603					      if	(pfwidth>2)
   2253  f603		       00 00		      .byte.b	%00000000, %00000000
   2254  f605					      endif
   2255  f605		       00 00		      .byte.b	%00000000, %00000000
   2256  f607					      if	(pfwidth>2)
   2257  f607		       00 00		      .byte.b	%00000000, %00000000
   2258  f609					      endif
   2259  f609		       00 00		      .byte.b	%00000000, %00000000
   2260  f60b					      if	(pfwidth>2)
   2261  f60b		       00 00		      .byte.b	%00000000, %00000000
   2262  f60d					      endif
   2263  f60d		       00 00		      .byte.b	%00000000, %00000000
   2264  f60f					      if	(pfwidth>2)
   2265  f60f		       00 00		      .byte.b	%00000000, %00000000
   2266  f611					      endif
   2267  f611		       00 00		      .byte.b	%00000000, %00000000
   2268  f613					      if	(pfwidth>2)
   2269  f613		       00 00		      .byte.b	%00000000, %00000000
   2270  f615					      endif
   2271  f615		       00 00		      .byte.b	%00000000, %00000000
   2272  f617					      if	(pfwidth>2)
   2273  f617		       00 00		      .byte.b	%00000000, %00000000
   2274  f619					      endif
   2275  f619		       00 00		      .byte.b	%00000000, %00000000
   2276  f61b					      if	(pfwidth>2)
   2277  f61b		       00 00		      .byte.b	%00000000, %00000000
   2278  f61d					      endif
   2279  f61d		       ff ff		      .byte.b	%11111111, %11111111
   2280  f61f					      if	(pfwidth>2)
   2281  f61f		       ff ff		      .byte.b	%11111111, %11111111
   2282  f621					      endif
   2283  f621				   pflabel1
   2284  f621		       bd f5 f5 	      lda	PF_data1,x
   2285  f624		       95 a4		      sta	playfield,x
   2286  f626		       ca		      dex
   2287  f627		       10 f8		      bpl	pflabel1
   2288  f629				   .
   2289  f629							;;line 209;;
   2290  f629
   2291  f629				   .L077		;;line 210;;  ballx = 80
   2292  f629
   2293  f629		       a9 50		      LDA	#80
   2294  f62b		       85 84		      STA	ballx
   2295  f62d				   .L078		;;line 211;;  bally = 50
   2296  f62d
   2297  f62d		       a9 32		      LDA	#50
   2298  f62f		       85 89		      STA	bally
   2299  f631				   .L079		;;line 212;;  ballheight = 1
   2300  f631
   2301  f631		       a9 01		      LDA	#1
   2302  f633		       85 92		      STA	ballheight
   2303  f635				   .L080		;;line 213;;  temp5 =	( rand	&  %00100000 )
   2304  f635
   2305  f635							; complex statement detected
   2306  f635		       20 be f3 	      jsr	randomize
   2307  f638		       29 20		      AND	#%00100000
   2308  f63a		       85 a0		      STA	temp5
   2309  f63c				   .L081		;;line 214;;  _Bit5_B_Direction_X = _Bit5_B_Direction_X  ^  temp5
   2310  f63c
   2311  f63c		       a5 dd		      LDA	_Bit5_B_Direction_X
   2312  f63e		       45 a0		      EOR	temp5
   2313  f640		       85 dd		      STA	_Bit5_B_Direction_X
   2314  f642				   .L082		;;line 215;;  _Bit6_B_Direction_Y{6} = 1
   2315  f642
   2316  f642		       a5 dd		      LDA	_Bit6_B_Direction_Y
   2317  f644		       09 40		      ORA	#64
   2318  f646		       85 dd		      STA	_Bit6_B_Direction_Y
   2319  f648				   .
   2320  f648							;;line 216;;
   2321  f648
   2322  f648				   .__Main_Loop
   2323  f648							;;line 217;; __Main_Loop
   2324  f648
   2325  f648				   .L083		;;line 218;;  score = l
   2326  f648
   2327  f648		       a9 60		      LDA	#$060
   2328  f64a		       85 95		      STA	score+2
   2329  f64c		       a9 00		      LDA	#$00
   2330  f64e		       85 94		      STA	score+1
   2331  f650		       a9 00		      LDA	#$00
   2332  f652		       85 93		      STA	score
   2333  f654				   .L084		;;line 219;;  dim ball_speed_x = 1
   2334  f654
   2335  f654				   .L085		;;line 220;;  dim ball_speed_y = 1
   2336  f654
   2337  f654				   .L086		;;line 221;;  COLUP1 = m
   2338  f654
   2339  f654		       a5 e0		      LDA	m
   2340  f656		       85 07		      STA	COLUP1
   2341  f658				   .L087		;;line 222;;  COLUP0 = l
   2342  f658
   2343  f658		       a5 df		      LDA	l
   2344  f65a		       85 06		      STA	COLUP0
   2345  f65c				   .L088		;;line 223;;  lifecolor = $3A
   2346  f65c
   2347  f65c		       a9 3a		      LDA	#$3A
   2348  f65e		       85 f4		      STA	lifecolor
   2349  f660				   .
   2350  f660							;;line 224;;
   2351  f660
   2352  f660				   .
   2353  f660							;;line 225;;
   2354  f660
   2355  f660				   .L089		;;line 226;;  if k  >	0 then AUDV0 = 10  :  AUDC0 = 4  :  AUDF0 = 25	:  k = k - 1 else AUDV0 = 0
   2356  f660
   2357  f660		       a9 00		      LDA	#0
   2358  f662		       c5 de		      CMP	k
   2359  f664		       b0 11		      BCS	.skipL089
   2360  f666				   .condpart3
   2361  f666		       a9 0a		      LDA	#10
   2362  f668		       85 19		      STA	AUDV0
   2363  f66a		       a9 04		      LDA	#4
   2364  f66c		       85 15		      STA	AUDC0
   2365  f66e		       a9 19		      LDA	#25
   2366  f670		       85 17		      STA	AUDF0
   2367  f672		       c6 de		      DEC	k
   2368  f674		       4c 7b f6 	      jmp	.skipelse1
   2369  f677				   .skipL089
   2370  f677		       a9 00		      LDA	#0
   2371  f679		       85 19		      STA	AUDV0
   2372  f67b				   .skipelse1
   2373  f67b				   .
   2374  f67b							;;line 227;;
   2375  f67b
   2376  f67b				   .
   2377  f67b							;;line 228;;
   2378  f67b
   2379  f67b				   .L090		;;line 229;;  if !joy0up  &&  !joy0down  &&  !joy0left  &&  !joy0right then goto __Skip_Joystick_Precheck
   2380  f67b
   2381  f67b		       a9 10		      lda	#$10
   2382  f67d		       2c 80 02 	      bit	SWCHA
   2383  f680		       f0 14		      BEQ	.skipL090
   2384  f682				   .condpart4
   2385  f682		       a9 20		      lda	#$20
   2386  f684		       2c 80 02 	      bit	SWCHA
   2387  f687		       f0 0d		      BEQ	.skip4then
   2388  f689				   .condpart5
   2389  f689		       2c 80 02 	      bit	SWCHA
   2390  f68c		       50 08		      BVC	.skip5then
   2391  f68e				   .condpart6
   2392  f68e		       2c 80 02 	      bit	SWCHA
   2393  f691		       10 03		      BPL	.skip6then
   2394  f693				   .condpart7
   2395  f693		       4c c1 f6 	      jmp	.__Skip_Joystick_Precheck
   2396  f696
   2397  f696				   .skip6then
   2398  f696				   .skip5then
   2399  f696				   .skip4then
   2400  f696				   .skipL090
   2401  f696				   .L091		;;line 230;;  if !joy1up  &&  !joy1down  &&  !joy1left  &&  !joy1right then goto __Skip_Joystick_Precheck
   2402  f696
   2403  f696		       a9 01		      lda	#1
   2404  f698		       2c 80 02 	      bit	SWCHA
   2405  f69b		       f0 18		      BEQ	.skipL091
   2406  f69d				   .condpart8
   2407  f69d		       a9 02		      lda	#2
   2408  f69f		       2c 80 02 	      bit	SWCHA
   2409  f6a2		       f0 11		      BEQ	.skip8then
   2410  f6a4				   .condpart9
   2411  f6a4		       a9 04		      lda	#4
   2412  f6a6		       2c 80 02 	      bit	SWCHA
   2413  f6a9		       f0 0a		      BEQ	.skip9then
   2414  f6ab				   .condpart10
   2415  f6ab		       a9 08		      lda	#8
   2416  f6ad		       2c 80 02 	      bit	SWCHA
   2417  f6b0		       f0 03		      BEQ	.skip10then
   2418  f6b2				   .condpart11
   2419  f6b2		       4c c1 f6 	      jmp	.__Skip_Joystick_Precheck
   2420  f6b5
   2421  f6b5				   .skip10then
   2422  f6b5				   .skip9then
   2423  f6b5				   .skip8then
   2424  f6b5				   .skipL091
   2425  f6b5				   .
   2426  f6b5							;;line 231;;
   2427  f6b5
   2428  f6b5				   .
   2429  f6b5							;;line 232;;
   2430  f6b5
   2431  f6b5				   .L092		;;line 233;;  _BitOp_P0_M0_Dir = _BitOp_P0_M0_Dir  &  %11110000
   2432  f6b5
   2433  f6b5		       a5 da		      LDA	_BitOp_P0_M0_Dir
   2434  f6b7		       29 f0		      AND	#%11110000
   2435  f6b9		       85 da		      STA	_BitOp_P0_M0_Dir
   2436  f6bb				   .L093		;;line 234;;  _BitOp_P1_M1_Dir = _BitOp_P1_M1_Dir  &  %11110000
   2437  f6bb
   2438  f6bb		       a5 db		      LDA	_BitOp_P1_M1_Dir
   2439  f6bd		       29 f0		      AND	#%11110000
   2440  f6bf		       85 db		      STA	_BitOp_P1_M1_Dir
   2441  f6c1				   .
   2442  f6c1							;;line 235;;
   2443  f6c1
   2444  f6c1				   .__Skip_Joystick_Precheck
   2445  f6c1							;;line 236;; __Skip_Joystick_Precheck
   2446  f6c1
   2447  f6c1				   .
   2448  f6c1							;;line 237;;
   2449  f6c1
   2450  f6c1				   .L094		;;line 238;;  if joy0up  &&  player0y	>  _P_Edge_Top then player0y = player0y  -  2  :  _Bit0_P0_Dir_Up{0} = 1
   2451  f6c1
   2452  f6c1		       a9 10		      lda	#$10
   2453  f6c3		       2c 80 02 	      bit	SWCHA
   2454  f6c6		       d0 13		      BNE	.skipL094
   2455  f6c8				   .condpart12
   2456  f6c8		       a9 09		      LDA	#_P_Edge_Top
   2457  f6ca		       c5 85		      CMP	player0y
   2458  f6cc		       b0 0d		      BCS	.skip12then
   2459  f6ce				   .condpart13
   2460  f6ce		       a5 85		      LDA	player0y
   2461  f6d0		       38		      SEC
   2462  f6d1		       e9 02		      SBC	#2
   2463  f6d3		       85 85		      STA	player0y
   2464  f6d5		       a5 da		      LDA	_Bit0_P0_Dir_Up
   2465  f6d7		       09 01		      ORA	#1
   2466  f6d9		       85 da		      STA	_Bit0_P0_Dir_Up
   2467  f6db				   .skip12then
   2468  f6db				   .skipL094
   2469  f6db				   .L095		;;line 239;;  if joy0down  &&	player0y  <  _P_Edge_Bottom then player0y = player0y  +  2  :  _Bit1_P0_Dir_Down{1} = 1
   2470  f6db
   2471  f6db		       a9 20		      lda	#$20
   2472  f6dd		       2c 80 02 	      bit	SWCHA
   2473  f6e0		       d0 13		      BNE	.skipL095
   2474  f6e2				   .condpart14
   2475  f6e2		       a5 85		      LDA	player0y
   2476  f6e4		       c9 58		      CMP	#_P_Edge_Bottom
   2477  f6e6		       b0 0d		      BCS	.skip14then
   2478  f6e8				   .condpart15
   2479  f6e8		       a5 85		      LDA	player0y
   2480  f6ea		       18		      CLC
   2481  f6eb		       69 02		      ADC	#2
   2482  f6ed		       85 85		      STA	player0y
   2483  f6ef		       a5 da		      LDA	_Bit1_P0_Dir_Down
   2484  f6f1		       09 02		      ORA	#2
   2485  f6f3		       85 da		      STA	_Bit1_P0_Dir_Down
   2486  f6f5				   .skip14then
   2487  f6f5				   .skipL095
   2488  f6f5				   .
   2489  f6f5							;;line 240;;
   2490  f6f5
   2491  f6f5				   .L096		;;line 241;;  if joy1up  &&  player1y	>  _P_Edge_Top then player1y = player1y  -  2  :  _Bit0_P0_Dir_Up{0} = 1
   2492  f6f5
   2493  f6f5		       a9 01		      lda	#1
   2494  f6f7		       2c 80 02 	      bit	SWCHA
   2495  f6fa		       d0 13		      BNE	.skipL096
   2496  f6fc				   .condpart16
   2497  f6fc		       a9 09		      LDA	#_P_Edge_Top
   2498  f6fe		       c5 86		      CMP	player1y
   2499  f700		       b0 0d		      BCS	.skip16then
   2500  f702				   .condpart17
   2501  f702		       a5 86		      LDA	player1y
   2502  f704		       38		      SEC
   2503  f705		       e9 02		      SBC	#2
   2504  f707		       85 86		      STA	player1y
   2505  f709		       a5 da		      LDA	_Bit0_P0_Dir_Up
   2506  f70b		       09 01		      ORA	#1
   2507  f70d		       85 da		      STA	_Bit0_P0_Dir_Up
   2508  f70f				   .skip16then
   2509  f70f				   .skipL096
   2510  f70f				   .L097		;;line 242;;  if joy1down  &&	player1y  <  _P_Edge_Bottom then player1y = player1y  +  2  :  _Bit1_P0_Dir_Down{1} = 1
   2511  f70f
   2512  f70f		       a9 02		      lda	#2
   2513  f711		       2c 80 02 	      bit	SWCHA
   2514  f714		       d0 13		      BNE	.skipL097
   2515  f716				   .condpart18
   2516  f716		       a5 86		      LDA	player1y
   2517  f718		       c9 58		      CMP	#_P_Edge_Bottom
   2518  f71a		       b0 0d		      BCS	.skip18then
   2519  f71c				   .condpart19
   2520  f71c		       a5 86		      LDA	player1y
   2521  f71e		       18		      CLC
   2522  f71f		       69 02		      ADC	#2
   2523  f721		       85 86		      STA	player1y
   2524  f723		       a5 da		      LDA	_Bit1_P0_Dir_Down
   2525  f725		       09 02		      ORA	#2
   2526  f727		       85 da		      STA	_Bit1_P0_Dir_Down
   2527  f729				   .skip18then
   2528  f729				   .skipL097
   2529  f729				   .
   2530  f729							;;line 243;;
   2531  f729
   2532  f729				   .
   2533  f729							;;line 244;;
   2534  f729
   2535  f729				   .L098		;;line 245;;  if !joy0fire then goto __Skip_Fire
   2536  f729
   2537  f729		       24 0c		      bit	INPT4
   2538  f72b		       10 03		      BPL	.skipL098
   2539  f72d				   .condpart20
   2540  f72d		       4c 8b f7 	      jmp	.__Skip_Fire
   2541  f730
   2542  f730				   .skipL098
   2543  f730				   .L099		;;line 246;;  if _Bit7_M0_Moving{7} then goto __Skip_Fire
   2544  f730
   2545  f730		       24 ec		      BIT	_Bit7_M0_Moving
   2546  f732		       10 03		      BPL	.skipL099
   2547  f734				   .condpart21
   2548  f734		       4c 8b f7 	      jmp	.__Skip_Fire
   2549  f737
   2550  f737				   .skipL099
   2551  f737				   .L0100		;;line 247;;  _Bit7_M0_Moving{7} = 1
   2552  f737
   2553  f737		       a5 ec		      LDA	_Bit7_M0_Moving
   2554  f739		       09 80		      ORA	#128
   2555  f73b		       85 ec		      STA	_Bit7_M0_Moving
   2556  f73d				   .L0101		;;line 248;;  _Bit4_M0_Dir_Up{4} = _Bit0_P0_Dir_Up{0}
   2557  f73d
   2558  f73d		       a5 da		      LDA	_Bit0_P0_Dir_Up
   2559  f73f		       29 01		      AND	#1
   2560  f741		       08		      PHP
   2561  f742		       a5 da		      LDA	_Bit4_M0_Dir_Up
   2562  f744		       29 ef		      AND	#239
   2563  f746		       28		      PLP
   2564  f747		       f0 02		      .byte.b	$F0, $02
   2565  f749		       09 10		      ORA	#16
   2566  f74b		       85 da		      STA	_Bit4_M0_Dir_Up
   2567  f74d				   .L0102		;;line 249;;  _Bit5_M0_Dir_Down{5} = _Bit1_P0_Dir_Down{1}
   2568  f74d
   2569  f74d		       a5 da		      LDA	_Bit1_P0_Dir_Down
   2570  f74f		       29 02		      AND	#2
   2571  f751		       08		      PHP
   2572  f752		       a5 da		      LDA	_Bit5_M0_Dir_Down
   2573  f754		       29 df		      AND	#223
   2574  f756		       28		      PLP
   2575  f757		       f0 02		      .byte.b	$F0, $02
   2576  f759		       09 20		      ORA	#32
   2577  f75b		       85 da		      STA	_Bit5_M0_Dir_Down
   2578  f75d				   .L0103		;;line 250;;  _Bit6_M0_Dir_Left{6} = _Bit2_P0_Dir_Left{2}
   2579  f75d
   2580  f75d		       a5 da		      LDA	_Bit2_P0_Dir_Left
   2581  f75f		       29 04		      AND	#4
   2582  f761		       08		      PHP
   2583  f762		       a5 da		      LDA	_Bit6_M0_Dir_Left
   2584  f764		       29 bf		      AND	#191
   2585  f766		       28		      PLP
   2586  f767		       f0 02		      .byte.b	$F0, $02
   2587  f769		       09 40		      ORA	#64
   2588  f76b		       85 da		      STA	_Bit6_M0_Dir_Left
   2589  f76d				   .L0104		;;line 251;;  _Bit7_M0_Dir_Right{7} = _Bit3_P0_Dir_Right{3}
   2590  f76d
   2591  f76d		       a5 da		      LDA	_Bit3_P0_Dir_Right
   2592  f76f		       29 08		      AND	#8
   2593  f771		       08		      PHP
   2594  f772		       a5 da		      LDA	_Bit7_M0_Dir_Right
   2595  f774		       29 7f		      AND	#127
   2596  f776		       28		      PLP
   2597  f777		       f0 02		      .byte.b	$F0, $02
   2598  f779		       09 80		      ORA	#128
   2599  f77b		       85 da		      STA	_Bit7_M0_Dir_Right
   2600  f77d				   .L0105		;;line 252;;  missile0x = player0x  +	6  :  missile0y = player0y  -  3
   2601  f77d
   2602  f77d		       a5 80		      LDA	player0x
   2603  f77f		       18		      CLC
   2604  f780		       69 06		      ADC	#6
   2605  f782		       85 82		      STA	missile0x
   2606  f784		       a5 85		      LDA	player0y
   2607  f786		       38		      SEC
   2608  f787		       e9 03		      SBC	#3
   2609  f789		       85 91		      STA	missile0y
   2610  f78b				   .__Skip_Fire
   2611  f78b							;;line 253;; __Skip_Fire
   2612  f78b
   2613  f78b				   .
   2614  f78b							;;line 254;;
   2615  f78b
   2616  f78b				   .L0106		;;line 255;;  if !_Bit7_M0_Moving{7} then goto __Player_2_Missile
   2617  f78b
   2618  f78b		       24 ec		      BIT	_Bit7_M0_Moving
   2619  f78d		       30 03		      BMI	.skipL0106
   2620  f78f				   .condpart22
   2621  f78f		       4c c4 f7 	      jmp	.__Player_2_Missile
   2622  f792
   2623  f792				   .skipL0106
   2624  f792				   .
   2625  f792							;;line 256;;
   2626  f792
   2627  f792				   .L0107		;;line 257;;  missile0x = missile0x  +  3
   2628  f792
   2629  f792		       a5 82		      LDA	missile0x
   2630  f794		       18		      CLC
   2631  f795		       69 03		      ADC	#3
   2632  f797		       85 82		      STA	missile0x
   2633  f799				   .
   2634  f799							;;line 258;;
   2635  f799
   2636  f799				   .
   2637  f799							;;line 259;;
   2638  f799
   2639  f799				   .
   2640  f799							;;line 260;;
   2641  f799
   2642  f799				   .L0108		;;line 261;;  if missile0y  <	_M_Edge_Top then goto __Delete_Missile
   2643  f799
   2644  f799		       a5 91		      LDA	missile0y
   2645  f79b		       c9 02		      CMP	#_M_Edge_Top
   2646  f79d		       b0 03		      BCS	.skipL0108
   2647  f79f				   .condpart23
   2648  f79f		       4c ba f8 	      jmp	.__Delete_Missile
   2649  f7a2
   2650  f7a2				   .skipL0108
   2651  f7a2				   .L0109		;;line 262;;  if missile0y  >	_M_Edge_Bottom then goto __Delete_Missile
   2652  f7a2
   2653  f7a2		       a9 58		      LDA	#_M_Edge_Bottom
   2654  f7a4		       c5 91		      CMP	missile0y
   2655  f7a6		       b0 03		      BCS	.skipL0109
   2656  f7a8				   .condpart24
   2657  f7a8		       4c ba f8 	      jmp	.__Delete_Missile
   2658  f7ab
   2659  f7ab				   .skipL0109
   2660  f7ab				   .L0110		;;line 263;;  if missile0x  <	_M_Edge_Left then goto __Delete_Missile
   2661  f7ab
   2662  f7ab		       a5 82		      LDA	missile0x
   2663  f7ad		       c9 00		      CMP	#_M_Edge_Left
   2664  f7af		       b0 03		      BCS	.skipL0110
   2665  f7b1				   .condpart25
   2666  f7b1		       4c ba f8 	      jmp	.__Delete_Missile
   2667  f7b4
   2668  f7b4				   .skipL0110
   2669  f7b4				   .L0111		;;line 264;;  if missile0x  >	_M_Edge_Right then goto __Delete_Missile
   2670  f7b4
   2671  f7b4		       a9 94		      LDA	#_M_Edge_Right
   2672  f7b6		       c5 82		      CMP	missile0x
   2673  f7b8		       b0 03		      BCS	.skipL0111
   2674  f7ba				   .condpart26
   2675  f7ba		       4c ba f8 	      jmp	.__Delete_Missile
   2676  f7bd
   2677  f7bd				   .skipL0111
   2678  f7bd				   .L0112		;;line 265;;  if collision(player1,missile0) then goto __Hit_Player1
   2679  f7bd
   2680  f7bd		       24 00		      bit	CXM0P
   2681  f7bf		       10 03		      BPL	.skipL0112
   2682  f7c1				   .condpart27
   2683  f7c1		       4c 69 f8 	      jmp	.__Hit_Player1
   2684  f7c4
   2685  f7c4				   .skipL0112
   2686  f7c4				   .
   2687  f7c4							;;line 266;;
   2688  f7c4
   2689  f7c4				   .__Player_2_Missile
   2690  f7c4							;;line 267;; __Player_2_Missile
   2691  f7c4
   2692  f7c4				   .
   2693  f7c4							;;line 268;;
   2694  f7c4
   2695  f7c4				   .L0113		;;line 269;;  if !joy1fire then goto __Skip_Fire_2
   2696  f7c4
   2697  f7c4		       24 0d		      bit	INPT5
   2698  f7c6		       10 03		      BPL	.skipL0113
   2699  f7c8				   .condpart28
   2700  f7c8		       4c 26 f8 	      jmp	.__Skip_Fire_2
   2701  f7cb
   2702  f7cb				   .skipL0113
   2703  f7cb				   .L0114		;;line 270;;  if _Bit7_M1_Moving{7} then goto __Skip_Fire_2
   2704  f7cb
   2705  f7cb		       24 ed		      BIT	_Bit7_M1_Moving
   2706  f7cd		       10 03		      BPL	.skipL0114
   2707  f7cf				   .condpart29
   2708  f7cf		       4c 26 f8 	      jmp	.__Skip_Fire_2
   2709  f7d2
   2710  f7d2				   .skipL0114
   2711  f7d2				   .L0115		;;line 271;;  _Bit7_M1_Moving{7} = 1
   2712  f7d2
   2713  f7d2		       a5 ed		      LDA	_Bit7_M1_Moving
   2714  f7d4		       09 80		      ORA	#128
   2715  f7d6		       85 ed		      STA	_Bit7_M1_Moving
   2716  f7d8				   .L0116		;;line 272;;  _Bit4_M1_Dir_Up{4} = _Bit0_P1_Dir_Up{0}
   2717  f7d8
   2718  f7d8		       a5 db		      LDA	_Bit0_P1_Dir_Up
   2719  f7da		       29 01		      AND	#1
   2720  f7dc		       08		      PHP
   2721  f7dd		       a5 db		      LDA	_Bit4_M1_Dir_Up
   2722  f7df		       29 ef		      AND	#239
   2723  f7e1		       28		      PLP
   2724  f7e2		       f0 02		      .byte.b	$F0, $02
   2725  f7e4		       09 10		      ORA	#16
   2726  f7e6		       85 db		      STA	_Bit4_M1_Dir_Up
   2727  f7e8				   .L0117		;;line 273;;  _Bit5_M1_Dir_Down{5} = _Bit1_P1_Dir_Down{1}
   2728  f7e8
   2729  f7e8		       a5 db		      LDA	_Bit1_P1_Dir_Down
   2730  f7ea		       29 02		      AND	#2
   2731  f7ec		       08		      PHP
   2732  f7ed		       a5 db		      LDA	_Bit5_M1_Dir_Down
   2733  f7ef		       29 df		      AND	#223
   2734  f7f1		       28		      PLP
   2735  f7f2		       f0 02		      .byte.b	$F0, $02
   2736  f7f4		       09 20		      ORA	#32
   2737  f7f6		       85 db		      STA	_Bit5_M1_Dir_Down
   2738  f7f8				   .L0118		;;line 274;;  _Bit6_M1_Dir_Left{6} = _Bit2_P1_Dir_Left{2}
   2739  f7f8
   2740  f7f8		       a5 db		      LDA	_Bit2_P1_Dir_Left
   2741  f7fa		       29 04		      AND	#4
   2742  f7fc		       08		      PHP
   2743  f7fd		       a5 db		      LDA	_Bit6_M1_Dir_Left
   2744  f7ff		       29 bf		      AND	#191
   2745  f801		       28		      PLP
   2746  f802		       f0 02		      .byte.b	$F0, $02
   2747  f804		       09 40		      ORA	#64
   2748  f806		       85 db		      STA	_Bit6_M1_Dir_Left
   2749  f808				   .L0119		;;line 275;;  _Bit7_M1_Dir_Right{7} = _Bit3_P1_Dir_Right{3}
   2750  f808
   2751  f808		       a5 db		      LDA	_Bit3_P1_Dir_Right
   2752  f80a		       29 08		      AND	#8
   2753  f80c		       08		      PHP
   2754  f80d		       a5 db		      LDA	_Bit7_M1_Dir_Right
   2755  f80f		       29 7f		      AND	#127
   2756  f811		       28		      PLP
   2757  f812		       f0 02		      .byte.b	$F0, $02
   2758  f814		       09 80		      ORA	#128
   2759  f816		       85 db		      STA	_Bit7_M1_Dir_Right
   2760  f818				   .L0120		;;line 276;;  missile1x = player1x  +	6  :  missile1y = player1y  -  3
   2761  f818
   2762  f818		       a5 81		      LDA	player1x
   2763  f81a		       18		      CLC
   2764  f81b		       69 06		      ADC	#6
   2765  f81d		       85 83		      STA	missile1x
   2766  f81f		       a5 86		      LDA	player1y
   2767  f821		       38		      SEC
   2768  f822		       e9 03		      SBC	#3
   2769  f824		       85 88		      STA	missile1y
   2770  f826				   .
   2771  f826							;;line 277;;
   2772  f826
   2773  f826				   .__Skip_Fire_2
   2774  f826							;;line 278;; __Skip_Fire_2
   2775  f826
   2776  f826				   .
   2777  f826							;;line 279;;
   2778  f826
   2779  f826				   .L0121		;;line 280;;  if !_Bit7_M1_Moving{7} then goto __Skip_Missile
   2780  f826
   2781  f826		       24 ed		      BIT	_Bit7_M1_Moving
   2782  f828		       30 03		      BMI	.skipL0121
   2783  f82a				   .condpart30
   2784  f82a		       4c d5 f8 	      jmp	.__Skip_Missile
   2785  f82d
   2786  f82d				   .skipL0121
   2787  f82d				   .L0122		;;line 281;;  missile1x = missile1x  -  3
   2788  f82d
   2789  f82d		       a5 83		      LDA	missile1x
   2790  f82f		       38		      SEC
   2791  f830		       e9 03		      SBC	#3
   2792  f832		       85 83		      STA	missile1x
   2793  f834				   .
   2794  f834							;;line 282;;
   2795  f834
   2796  f834				   .
   2797  f834							;;line 283;;
   2798  f834
   2799  f834				   .L0123		;;line 284;;  if missile1y  <	_M_Edge_Top then goto __Delete_Missile2
   2800  f834
   2801  f834		       a5 88		      LDA	missile1y
   2802  f836		       c9 02		      CMP	#_M_Edge_Top
   2803  f838		       b0 03		      BCS	.skipL0123
   2804  f83a				   .condpart31
   2805  f83a		       4c c9 f8 	      jmp	.__Delete_Missile2
   2806  f83d
   2807  f83d				   .skipL0123
   2808  f83d				   .L0124		;;line 285;;  if missile1y  >	_M_Edge_Bottom then goto __Delete_Missile2
   2809  f83d
   2810  f83d		       a9 58		      LDA	#_M_Edge_Bottom
   2811  f83f		       c5 88		      CMP	missile1y
   2812  f841		       b0 03		      BCS	.skipL0124
   2813  f843				   .condpart32
   2814  f843		       4c c9 f8 	      jmp	.__Delete_Missile2
   2815  f846
   2816  f846				   .skipL0124
   2817  f846				   .L0125		;;line 286;;  if missile1x  <	_M_Edge_Left then goto __Delete_Missile2
   2818  f846
   2819  f846		       a5 83		      LDA	missile1x
   2820  f848		       c9 00		      CMP	#_M_Edge_Left
   2821  f84a		       b0 03		      BCS	.skipL0125
   2822  f84c				   .condpart33
   2823  f84c		       4c c9 f8 	      jmp	.__Delete_Missile2
   2824  f84f
   2825  f84f				   .skipL0125
   2826  f84f				   .L0126		;;line 287;;  if missile1x  >	_M_Edge_Right then goto __Delete_Missile2
   2827  f84f
   2828  f84f		       a9 94		      LDA	#_M_Edge_Right
   2829  f851		       c5 83		      CMP	missile1x
   2830  f853		       b0 03		      BCS	.skipL0126
   2831  f855				   .condpart34
   2832  f855		       4c c9 f8 	      jmp	.__Delete_Missile2
   2833  f858
   2834  f858				   .skipL0126
   2835  f858				   .
   2836  f858							;;line 288;;
   2837  f858
   2838  f858				   .
   2839  f858							;;line 289;;
   2840  f858
   2841  f858				   .L0127		;;line 290;;  if collision(player0,missile1) then goto __Hit_Player2
   2842  f858
   2843  f858		       24 01		      bit	CXM1P
   2844  f85a		       10 03		      BPL	.skipL0127
   2845  f85c				   .condpart35
   2846  f85c		       4c 95 f8 	      jmp	.__Hit_Player2
   2847  f85f
   2848  f85f				   .skipL0127
   2849  f85f				   .
   2850  f85f							;;line 291;;
   2851  f85f
   2852  f85f				   .L0128		;;line 292;;  if !collision(playfield,missile1) then goto __Skip_Missile
   2853  f85f
   2854  f85f		       24 05		      bit	CXM1FB
   2855  f861		       30 03		      BMI	.skipL0128
   2856  f863				   .condpart36
   2857  f863		       4c d5 f8 	      jmp	.__Skip_Missile
   2858  f866
   2859  f866				   .skipL0128
   2860  f866				   .
   2861  f866							;;line 293;;
   2862  f866
   2863  f866				   .
   2864  f866							;;line 294;;
   2865  f866
   2866  f866				   .L0129		;;line 295;;  goto __Delete_Missile
   2867  f866
   2868  f866		       4c ba f8 	      jmp	.__Delete_Missile
   2869  f869
   2870  f869				   .
   2871  f869							;;line 296;;
   2872  f869
   2873  f869				   .
   2874  f869							;;line 297;;
   2875  f869
   2876  f869				   .
   2877  f869							;;line 298;;
   2878  f869
   2879  f869				   .
   2880  f869							;;line 299;;
   2881  f869
   2882  f869				   .
   2883  f869							;;line 300;;
   2884  f869
   2885  f869				   .
   2886  f869							;;line 301;;
   2887  f869
   2888  f869				   .
   2889  f869							;;line 302;;
   2890  f869
   2891  f869				   .
   2892  f869							;;line 303;;
   2893  f869
   2894  f869				   .
   2895  f869							;;line 304;;
   2896  f869
   2897  f869				   .
   2898  f869							;;line 305;;
   2899  f869
   2900  f869				   .
   2901  f869							;;line 306;;
   2902  f869
   2903  f869				   .
   2904  f869							;;line 307;;
   2905  f869
   2906  f869				   .
   2907  f869							;;line 308;;
   2908  f869
   2909  f869				   .
   2910  f869							;;line 309;;
   2911  f869
   2912  f869				   .__Hit_Player1
   2913  f869							;;line 310;; __Hit_Player1
   2914  f869
   2915  f869				   .L0130		;;line 311;;  a = a  -  1
   2916  f869
   2917  f869		       c6 d4		      DEC	a
   2918  f86b				   .L0131		;;line 312;;  if a = 2 then m = $98
   2919  f86b
   2920  f86b		       a5 d4		      LDA	a
   2921  f86d		       c9 02		      CMP	#2
   2922  f86f		       d0 04		      BNE	.skipL0131
   2923  f871				   .condpart37
   2924  f871		       a9 98		      LDA	#$98
   2925  f873		       85 e0		      STA	m
   2926  f875				   .skipL0131
   2927  f875				   .L0132		;;line 313;;  if a = 1 then m = $92
   2928  f875
   2929  f875		       a5 d4		      LDA	a
   2930  f877		       c9 01		      CMP	#1
   2931  f879		       d0 04		      BNE	.skipL0132
   2932  f87b				   .condpart38
   2933  f87b		       a9 92		      LDA	#$92
   2934  f87d		       85 e0		      STA	m
   2935  f87f				   .skipL0132
   2936  f87f				   .L0133		;;line 314;;  if a = 0 then player1x = 200  :	player1y = 200
   2937  f87f
   2938  f87f		       a5 d4		      LDA	a
   2939  f881		       c9 00		      CMP	#0
   2940  f883		       d0 06		      BNE	.skipL0133
   2941  f885				   .condpart39
   2942  f885		       a9 c8		      LDA	#200
   2943  f887		       85 81		      STA	player1x
   2944  f889		       85 86		      STA	player1y
   2945  f88b				   .skipL0133
   2946  f88b				   .L0134		;;line 315;;  lives = lives - 32
   2947  f88b
   2948  f88b		       a5 f3		      LDA	lives
   2949  f88d		       38		      SEC
   2950  f88e		       e9 20		      SBC	#32
   2951  f890		       85 f3		      STA	lives
   2952  f892				   .
   2953  f892							;;line 316;;
   2954  f892
   2955  f892				   .L0135		;;line 317;;  goto __Delete_Missile
   2956  f892
   2957  f892		       4c ba f8 	      jmp	.__Delete_Missile
   2958  f895
   2959  f895				   .__Hit_Player2
   2960  f895							;;line 318;; __Hit_Player2
   2961  f895
   2962  f895				   .L0136		;;line 319;;  b = b  -  1
   2963  f895
   2964  f895		       c6 d5		      DEC	b
   2965  f897				   .L0137		;;line 320;;  if b = 2 then l = $38
   2966  f897
   2967  f897		       a5 d5		      LDA	b
   2968  f899		       c9 02		      CMP	#2
   2969  f89b		       d0 04		      BNE	.skipL0137
   2970  f89d				   .condpart40
   2971  f89d		       a9 38		      LDA	#$38
   2972  f89f		       85 df		      STA	l
   2973  f8a1				   .skipL0137
   2974  f8a1				   .L0138		;;line 321;;  if b = 1 then l = $33
   2975  f8a1
   2976  f8a1		       a5 d5		      LDA	b
   2977  f8a3		       c9 01		      CMP	#1
   2978  f8a5		       d0 04		      BNE	.skipL0138
   2979  f8a7				   .condpart41
   2980  f8a7		       a9 33		      LDA	#$33
   2981  f8a9		       85 df		      STA	l
   2982  f8ab				   .skipL0138
   2983  f8ab				   .L0139		;;line 322;;  if b = 0 then player0x = 200  :	player0y = 200
   2984  f8ab
   2985  f8ab		       a5 d5		      LDA	b
   2986  f8ad		       c9 00		      CMP	#0
   2987  f8af		       d0 06		      BNE	.skipL0139
   2988  f8b1				   .condpart42
   2989  f8b1		       a9 c8		      LDA	#200
   2990  f8b3		       85 80		      STA	player0x
   2991  f8b5		       85 85		      STA	player0y
   2992  f8b7				   .skipL0139
   2993  f8b7				   .L0140		;;line 323;;  goto __Delete_Missile2
   2994  f8b7
   2995  f8b7		       4c c9 f8 	      jmp	.__Delete_Missile2
   2996  f8ba
   2997  f8ba				   .
   2998  f8ba							;;line 324;;
   2999  f8ba
   3000  f8ba				   .__Delete_Missile
   3001  f8ba							;;line 325;; __Delete_Missile
   3002  f8ba
   3003  f8ba				   .L0141		;;line 326;;  _Bit7_M0_Moving{7} = 0  :  missile0x = 200  :  missile0y = 200
   3004  f8ba
   3005  f8ba		       a5 ec		      LDA	_Bit7_M0_Moving
   3006  f8bc		       29 7f		      AND	#127
   3007  f8be		       85 ec		      STA	_Bit7_M0_Moving
   3008  f8c0		       a9 c8		      LDA	#200
   3009  f8c2		       85 82		      STA	missile0x
   3010  f8c4		       85 91		      STA	missile0y
   3011  f8c6				   .L0142		;;line 327;;  goto __Skip_Missile
   3012  f8c6
   3013  f8c6		       4c d5 f8 	      jmp	.__Skip_Missile
   3014  f8c9
   3015  f8c9				   .
   3016  f8c9							;;line 328;;
   3017  f8c9
   3018  f8c9				   .__Delete_Missile2
   3019  f8c9							;;line 329;; __Delete_Missile2
   3020  f8c9
   3021  f8c9				   .L0143		;;line 330;;  _Bit7_M1_Moving{7} = 0  :  missile1x = 200  :  missile1y = 200
   3022  f8c9
   3023  f8c9		       a5 ed		      LDA	_Bit7_M1_Moving
   3024  f8cb		       29 7f		      AND	#127
   3025  f8cd		       85 ed		      STA	_Bit7_M1_Moving
   3026  f8cf		       a9 c8		      LDA	#200
   3027  f8d1		       85 83		      STA	missile1x
   3028  f8d3		       85 88		      STA	missile1y
   3029  f8d5				   .
   3030  f8d5							;;line 331;;
   3031  f8d5
   3032  f8d5				   .__Skip_Missile
   3033  f8d5							;;line 332;; __Skip_Missile
   3034  f8d5
   3035  f8d5				   .L0144		;;line 333;;  if collision(player0,ball) then goto __Ball_P1
   3036  f8d5
   3037  f8d5		       24 02		      bit	CXP0FB
   3038  f8d7		       50 03		      BVC	.skipL0144
   3039  f8d9				   .condpart43
   3040  f8d9		       4c e6 f8 	      jmp	.__Ball_P1
   3041  f8dc
   3042  f8dc				   .skipL0144
   3043  f8dc				   .L0145		;;line 334;;  if collision(player1,ball) then goto __Ball_P1
   3044  f8dc
   3045  f8dc		       24 03		      bit	CXP1FB
   3046  f8de		       50 03		      BVC	.skipL0145
   3047  f8e0				   .condpart44
   3048  f8e0		       4c e6 f8 	      jmp	.__Ball_P1
   3049  f8e3
   3050  f8e3				   .skipL0145
   3051  f8e3				   .L0146		;;line 335;;  goto __Skip_Ball_P1
   3052  f8e3
   3053  f8e3		       4c 1e f9 	      jmp	.__Skip_Ball_P1
   3054  f8e6
   3055  f8e6				   .
   3056  f8e6							;;line 336;;
   3057  f8e6
   3058  f8e6				   .__Ball_P1
   3059  f8e6							;;line 337;; __Ball_P1
   3060  f8e6
   3061  f8e6				   .L0147		;;line 338;;  _Bit5_B_Direction_X = _Bit5_B_Direction_X  ^  %00100000
   3062  f8e6
   3063  f8e6		       a5 dd		      LDA	_Bit5_B_Direction_X
   3064  f8e8		       49 20		      EOR	#%00100000
   3065  f8ea		       85 dd		      STA	_Bit5_B_Direction_X
   3066  f8ec				   .L0148		;;line 339;;  if joy0up  ||  joy1up then _Bit6_B_Direction_Y{6} = 0
   3067  f8ec
   3068  f8ec		       a9 10		      lda	#$10
   3069  f8ee		       2c 80 02 	      bit	SWCHA
   3070  f8f1		       d0 03		      BNE	.skipL0148
   3071  f8f3				   .condpart45
   3072  f8f3		       4c fd f8 	      jmp	.condpart46
   3073  f8f6				   .skipL0148
   3074  f8f6		       a9 01		      lda	#1
   3075  f8f8		       2c 80 02 	      bit	SWCHA
   3076  f8fb		       d0 06		      BNE	.skip11OR
   3077  f8fd				   .condpart46
   3078  f8fd		       a5 dd		      LDA	_Bit6_B_Direction_Y
   3079  f8ff		       29 bf		      AND	#191
   3080  f901		       85 dd		      STA	_Bit6_B_Direction_Y
   3081  f903				   .skip11OR
   3082  f903				   .L0149		;;line 340;;  if joy0down  ||	joy1down then _Bit6_B_Direction_Y{6} = 1
   3083  f903
   3084  f903		       a9 20		      lda	#$20
   3085  f905		       2c 80 02 	      bit	SWCHA
   3086  f908		       d0 03		      BNE	.skipL0149
   3087  f90a				   .condpart47
   3088  f90a		       4c 14 f9 	      jmp	.condpart48
   3089  f90d				   .skipL0149
   3090  f90d		       a9 02		      lda	#2
   3091  f90f		       2c 80 02 	      bit	SWCHA
   3092  f912		       d0 06		      BNE	.skip12OR
   3093  f914				   .condpart48
   3094  f914		       a5 dd		      LDA	_Bit6_B_Direction_Y
   3095  f916		       09 40		      ORA	#64
   3096  f918		       85 dd		      STA	_Bit6_B_Direction_Y
   3097  f91a				   .skip12OR
   3098  f91a				   .
   3099  f91a							;;line 341;;
   3100  f91a
   3101  f91a				   .L0150		;;line 342;;  k = 3
   3102  f91a
   3103  f91a		       a9 03		      LDA	#3
   3104  f91c		       85 de		      STA	k
   3105  f91e				   .__Skip_Ball_P1
   3106  f91e							;;line 343;; __Skip_Ball_P1
   3107  f91e
   3108  f91e				   .
   3109  f91e							;;line 344;;
   3110  f91e
   3111  f91e				   .L0151		;;line 345;;  temp5 =	- 1  :	if _Bit5_B_Direction_X{5} then temp5 = 1
   3112  f91e
   3113  f91e		       a9 ff		      LDA	#255
   3114  f920		       85 a0		      STA	temp5
   3115  f922		       a5 dd		      LDA	_Bit5_B_Direction_X
   3116  f924		       29 20		      AND	#32
   3117  f926		       f0 04		      BEQ	.skipL0151
   3118  f928				   .condpart49
   3119  f928		       a9 01		      LDA	#1
   3120  f92a		       85 a0		      STA	temp5
   3121  f92c				   .skipL0151
   3122  f92c				   .L0152		;;line 346;;  if temp5 =  - 1 then _Ball_Direction =  - 0.60 else _Ball_Direction = 0.60
   3123  f92c
   3124  f92c							; complex condition detected
   3125  f92c		       a9 ff		      LDA	#255
   3126  f92e		       48		      PHA
   3127  f92f		       ba		      TSX
   3128  f930		       68		      PLA
   3129  f931		       a5 a0		      LDA	temp5
   3130  f933		       d5 01		      CMP	1,x
   3131  f935		       d0 0b		      BNE	.skipL0152
   3132  f937				   .condpart50
   3133  f937		       a2 66		      LDX	#102
   3134  f939		       86 e4		      STX	q
   3135  f93b		       a9 ff		      LDA	#255
   3136  f93d		       85 e3		      STA	_Ball_Direction
   3137  f93f		       4c 4a f9 	      jmp	.skipelse2
   3138  f942				   .skipL0152
   3139  f942		       a2 99		      LDX	#153
   3140  f944		       86 e4		      STX	q
   3141  f946		       a9 00		      LDA	#0
   3142  f948		       85 e3		      STA	_Ball_Direction
   3143  f94a				   .skipelse2
   3144  f94a				   .
   3145  f94a							;;line 347;;
   3146  f94a
   3147  f94a				   .
   3148  f94a							;;line 348;;
   3149  f94a
   3150  f94a				   .L0153		;;line 349;;  if _Ball_Velocity  >  _B_Edge_Left  &&  _Ball_Velocity  <  _B_Edge_Right then _Ball_Velocity = _Ball_Direction  +  _Ball_Velocity else n = 10  :  goto __Ball_Spawn_Lag_Loop
   3151  f94a
   3152  f94a		       a9 12		      LDA	#_B_Edge_Left
   3153  f94c		       c5 84		      CMP	_Ball_Velocity
   3154  f94e		       b0 16		      BCS	.skipL0153
   3155  f950				   .condpart51
   3156  f950		       a5 84		      LDA	_Ball_Velocity
   3157  f952		       c9 86		      CMP	#_B_Edge_Right
   3158  f954		       b0 10		      BCS	.skip51then
   3159  f956				   .condpart52
   3160  f956		       a5 e4		      LDA	q
   3161  f958		       18		      CLC
   3162  f959		       65 d8		      ADC	e
   3163  f95b		       85 d8		      STA	e
   3164  f95d		       a5 e3		      LDA	_Ball_Direction
   3165  f95f		       65 84		      ADC	_Ball_Velocity
   3166  f961		       85 84		      STA	_Ball_Velocity
   3167  f963		       4c 6d f9 	      jmp	.skipelse3
   3168  f966				   .skip51then
   3169  f966				   .skipL0153
   3170  f966		       a9 0a		      LDA	#10
   3171  f968		       85 e1		      STA	n
   3172  f96a		       4c af f5 	      jmp	.__Ball_Spawn_Lag_Loop
   3173  f96d
   3174  f96d				   .skipelse3
   3175  f96d				   .L0154		;;line 350;;  temp6 =	- 1  :	if _Bit6_B_Direction_Y{6} then temp6 = 1
   3176  f96d
   3177  f96d		       a9 ff		      LDA	#255
   3178  f96f		       85 a1		      STA	temp6
   3179  f971		       24 dd		      BIT	_Bit6_B_Direction_Y
   3180  f973		       50 04		      BVC	.skipL0154
   3181  f975				   .condpart53
   3182  f975		       a9 01		      LDA	#1
   3183  f977		       85 a1		      STA	temp6
   3184  f979				   .skipL0154
   3185  f979				   .L0155		;;line 351;;  if temp6 =  - 1 then _Ball_Direction =  - 0.60 else _Ball_Direction = 0.60
   3186  f979
   3187  f979							; complex condition detected
   3188  f979		       a9 ff		      LDA	#255
   3189  f97b		       48		      PHA
   3190  f97c		       ba		      TSX
   3191  f97d		       68		      PLA
   3192  f97e		       a5 a1		      LDA	temp6
   3193  f980		       d5 01		      CMP	1,x
   3194  f982		       d0 0b		      BNE	.skipL0155
   3195  f984				   .condpart54
   3196  f984		       a2 66		      LDX	#102
   3197  f986		       86 e4		      STX	q
   3198  f988		       a9 ff		      LDA	#255
   3199  f98a		       85 e3		      STA	_Ball_Direction
   3200  f98c		       4c 97 f9 	      jmp	.skipelse4
   3201  f98f				   .skipL0155
   3202  f98f		       a2 99		      LDX	#153
   3203  f991		       86 e4		      STX	q
   3204  f993		       a9 00		      LDA	#0
   3205  f995		       85 e3		      STA	_Ball_Direction
   3206  f997				   .skipelse4
   3207  f997				   .L0156		;;line 352;;  _Ball_Position_y = _Ball_Position_y  +  _Ball_Direction
   3208  f997
   3209  f997		       a5 d9		      LDA	f
   3210  f999		       18		      CLC
   3211  f99a		       65 e4		      ADC	q
   3212  f99c		       85 d9		      STA	f
   3213  f99e		       a5 89		      LDA	_Ball_Position_y
   3214  f9a0		       65 e3		      ADC	_Ball_Direction
   3215  f9a2		       85 89		      STA	_Ball_Position_y
   3216  f9a4				   .
   3217  f9a4							;;line 353;;
   3218  f9a4
   3219  f9a4				   .
   3220  f9a4							;;line 354;;
   3221  f9a4
   3222  f9a4				   .
   3223  f9a4							;;line 355;;
   3224  f9a4
   3225  f9a4				   .
   3226  f9a4							;;line 356;;
   3227  f9a4
   3228  f9a4				   .L0157		;;line 357;;  if bally  <  _B_Edge_Top  ||  bally  >  _B_Edge_Bottom then _Bit6_B_Direction_Y = _Bit6_B_Direction_Y  ^  %01000000
   3229  f9a4
   3230  f9a4		       a5 89		      LDA	bally
   3231  f9a6		       c9 04		      CMP	#_B_Edge_Top
   3232  f9a8		       b0 03		      BCS	.skipL0157
   3233  f9aa				   .condpart55
   3234  f9aa		       4c b3 f9 	      jmp	.condpart56
   3235  f9ad				   .skipL0157
   3236  f9ad		       a9 55		      LDA	#_B_Edge_Bottom
   3237  f9af		       c5 89		      CMP	bally
   3238  f9b1		       b0 06		      BCS	.skip14OR
   3239  f9b3				   .condpart56
   3240  f9b3		       a5 dd		      LDA	_Bit6_B_Direction_Y
   3241  f9b5		       49 40		      EOR	#%01000000
   3242  f9b7		       85 dd		      STA	_Bit6_B_Direction_Y
   3243  f9b9				   .skip14OR
   3244  f9b9				   .
   3245  f9b9							;;line 358;;
   3246  f9b9
   3247  f9b9				   .
   3248  f9b9							;;line 359;;
   3249  f9b9
   3250  f9b9				   .
   3251  f9b9							;;line 360;;
   3252  f9b9
   3253  f9b9				   .
   3254  f9b9							;;line 361;;
   3255  f9b9
   3256  f9b9				   .L0158		;;line 362;;  drawscreen
   3257  f9b9
   3258  f9b9		       20 c8 f3 	      jsr	drawscreen
   3259  f9bc				   .
   3260  f9bc							;;line 363;;
   3261  f9bc
   3262  f9bc				   .
   3263  f9bc							;;line 364;;
   3264  f9bc
   3265  f9bc				   .
   3266  f9bc							;;line 365;;
   3267  f9bc
   3268  f9bc				   .
   3269  f9bc							;;line 366;;
   3270  f9bc
   3271  f9bc				   .
   3272  f9bc							;;line 367;;
   3273  f9bc
   3274  f9bc				   .L0159		;;line 368;;  if !switchreset then _Bit0_Reset_Restrainer{0} = 0  :  goto __Main_Loop
   3275  f9bc
   3276  f9bc		       a9 01		      lda	#1
   3277  f9be		       2c 82 02 	      bit	SWCHB
   3278  f9c1		       f0 09		      BEQ	.skipL0159
   3279  f9c3				   .condpart57
   3280  f9c3		       a5 ec		      LDA	_Bit0_Reset_Restrainer
   3281  f9c5		       29 fe		      AND	#254
   3282  f9c7		       85 ec		      STA	_Bit0_Reset_Restrainer
   3283  f9c9		       4c 48 f6 	      jmp	.__Main_Loop
   3284  f9cc
   3285  f9cc				   .skipL0159
   3286  f9cc				   .
   3287  f9cc							;;line 369;;
   3288  f9cc
   3289  f9cc				   .L0160		;;line 370;;  if _Bit0_Reset_Restrainer{0} then goto __Main_Loop
   3290  f9cc
   3291  f9cc		       a5 ec		      LDA	_Bit0_Reset_Restrainer
   3292  f9ce		       4a		      LSR
   3293  f9cf		       90 03		      BCC	.skipL0160
   3294  f9d1				   .condpart58
   3295  f9d1		       4c 48 f6 	      jmp	.__Main_Loop
   3296  f9d4
   3297  f9d4				   .skipL0160
   3298  f9d4				   .
   3299  f9d4							;;line 371;;
   3300  f9d4
   3301  f9d4				   .
   3302  f9d4							;;line 372;;
   3303  f9d4
   3304  f9d4				   .L0161		;;line 373;;  goto __Start_Restart
   3305  f9d4
   3306  f9d4		       4c c8 f4 	      jmp	.__Start_Restart
   3307  f9d7
   3308  f9d7				   .
   3309  f9d7							;;line 374;;
   3310  f9d7
   3311  f9d7				  -	      ifconst	pfres
   3312  f9d7				  -	      if	(<*) > (254-pfres)
   3313  f9d7				  -	      align	256
   3314  f9d7				  -	      endif
   3315  f9d7				  -	      if	(<*) < (136-pfres*pfwidth)
   3316  f9d7				  -	      repeat	((136-pfres*pfwidth)-(<*))
   3317  f9d7				  -	      .byte	0
   3318  f9d7				  -	      repend
   3319  f9d7				  -	      endif
   3320  f9d7					      else
   3321  f9d7					      if	(<*) > 206
   3322  fa00		       00 00 00 00*	      align	256
   3323  fa00					      endif
   3324  fa00					      if	(<*) < 88
   3325  fa00					      repeat	(88-(<*))
   3326  fa00		       00		      .byte.b	0
   3325  fa00					      repend
   3326  fa01		       00		      .byte.b	0
   3325  fa01					      repend
   3326  fa02		       00		      .byte.b	0
   3325  fa02					      repend
   3326  fa03		       00		      .byte.b	0
   3325  fa03					      repend
   3326  fa04		       00		      .byte.b	0
   3325  fa04					      repend
   3326  fa05		       00		      .byte.b	0
   3325  fa05					      repend
   3326  fa06		       00		      .byte.b	0
   3325  fa06					      repend
   3326  fa07		       00		      .byte.b	0
   3325  fa07					      repend
   3326  fa08		       00		      .byte.b	0
   3325  fa08					      repend
   3326  fa09		       00		      .byte.b	0
   3325  fa09					      repend
   3326  fa0a		       00		      .byte.b	0
   3325  fa0a					      repend
   3326  fa0b		       00		      .byte.b	0
   3325  fa0b					      repend
   3326  fa0c		       00		      .byte.b	0
   3325  fa0c					      repend
   3326  fa0d		       00		      .byte.b	0
   3325  fa0d					      repend
   3326  fa0e		       00		      .byte.b	0
   3325  fa0e					      repend
   3326  fa0f		       00		      .byte.b	0
   3325  fa0f					      repend
   3326  fa10		       00		      .byte.b	0
   3325  fa10					      repend
   3326  fa11		       00		      .byte.b	0
   3325  fa11					      repend
   3326  fa12		       00		      .byte.b	0
   3325  fa12					      repend
   3326  fa13		       00		      .byte.b	0
   3325  fa13					      repend
   3326  fa14		       00		      .byte.b	0
   3325  fa14					      repend
   3326  fa15		       00		      .byte.b	0
   3325  fa15					      repend
   3326  fa16		       00		      .byte.b	0
   3325  fa16					      repend
   3326  fa17		       00		      .byte.b	0
   3325  fa17					      repend
   3326  fa18		       00		      .byte.b	0
   3325  fa18					      repend
   3326  fa19		       00		      .byte.b	0
   3325  fa19					      repend
   3326  fa1a		       00		      .byte.b	0
   3325  fa1a					      repend
   3326  fa1b		       00		      .byte.b	0
   3325  fa1b					      repend
   3326  fa1c		       00		      .byte.b	0
   3325  fa1c					      repend
   3326  fa1d		       00		      .byte.b	0
   3325  fa1d					      repend
   3326  fa1e		       00		      .byte.b	0
   3325  fa1e					      repend
   3326  fa1f		       00		      .byte.b	0
   3325  fa1f					      repend
   3326  fa20		       00		      .byte.b	0
   3325  fa20					      repend
   3326  fa21		       00		      .byte.b	0
   3325  fa21					      repend
   3326  fa22		       00		      .byte.b	0
   3325  fa22					      repend
   3326  fa23		       00		      .byte.b	0
   3325  fa23					      repend
   3326  fa24		       00		      .byte.b	0
   3325  fa24					      repend
   3326  fa25		       00		      .byte.b	0
   3325  fa25					      repend
   3326  fa26		       00		      .byte.b	0
   3325  fa26					      repend
   3326  fa27		       00		      .byte.b	0
   3325  fa27					      repend
   3326  fa28		       00		      .byte.b	0
   3325  fa28					      repend
   3326  fa29		       00		      .byte.b	0
   3325  fa29					      repend
   3326  fa2a		       00		      .byte.b	0
   3325  fa2a					      repend
   3326  fa2b		       00		      .byte.b	0
   3325  fa2b					      repend
   3326  fa2c		       00		      .byte.b	0
   3325  fa2c					      repend
   3326  fa2d		       00		      .byte.b	0
   3325  fa2d					      repend
   3326  fa2e		       00		      .byte.b	0
   3325  fa2e					      repend
   3326  fa2f		       00		      .byte.b	0
   3325  fa2f					      repend
   3326  fa30		       00		      .byte.b	0
   3325  fa30					      repend
   3326  fa31		       00		      .byte.b	0
   3325  fa31					      repend
   3326  fa32		       00		      .byte.b	0
   3325  fa32					      repend
   3326  fa33		       00		      .byte.b	0
   3325  fa33					      repend
   3326  fa34		       00		      .byte.b	0
   3325  fa34					      repend
   3326  fa35		       00		      .byte.b	0
   3325  fa35					      repend
   3326  fa36		       00		      .byte.b	0
   3325  fa36					      repend
   3326  fa37		       00		      .byte.b	0
   3325  fa37					      repend
   3326  fa38		       00		      .byte.b	0
   3325  fa38					      repend
   3326  fa39		       00		      .byte.b	0
   3325  fa39					      repend
   3326  fa3a		       00		      .byte.b	0
   3325  fa3a					      repend
   3326  fa3b		       00		      .byte.b	0
   3325  fa3b					      repend
   3326  fa3c		       00		      .byte.b	0
   3325  fa3c					      repend
   3326  fa3d		       00		      .byte.b	0
   3325  fa3d					      repend
   3326  fa3e		       00		      .byte.b	0
   3325  fa3e					      repend
   3326  fa3f		       00		      .byte.b	0
   3325  fa3f					      repend
   3326  fa40		       00		      .byte.b	0
   3325  fa40					      repend
   3326  fa41		       00		      .byte.b	0
   3325  fa41					      repend
   3326  fa42		       00		      .byte.b	0
   3325  fa42					      repend
   3326  fa43		       00		      .byte.b	0
   3325  fa43					      repend
   3326  fa44		       00		      .byte.b	0
   3325  fa44					      repend
   3326  fa45		       00		      .byte.b	0
   3325  fa45					      repend
   3326  fa46		       00		      .byte.b	0
   3325  fa46					      repend
   3326  fa47		       00		      .byte.b	0
   3325  fa47					      repend
   3326  fa48		       00		      .byte.b	0
   3325  fa48					      repend
   3326  fa49		       00		      .byte.b	0
   3325  fa49					      repend
   3326  fa4a		       00		      .byte.b	0
   3325  fa4a					      repend
   3326  fa4b		       00		      .byte.b	0
   3325  fa4b					      repend
   3326  fa4c		       00		      .byte.b	0
   3325  fa4c					      repend
   3326  fa4d		       00		      .byte.b	0
   3325  fa4d					      repend
   3326  fa4e		       00		      .byte.b	0
   3325  fa4e					      repend
   3326  fa4f		       00		      .byte.b	0
   3325  fa4f					      repend
   3326  fa50		       00		      .byte.b	0
   3325  fa50					      repend
   3326  fa51		       00		      .byte.b	0
   3325  fa51					      repend
   3326  fa52		       00		      .byte.b	0
   3325  fa52					      repend
   3326  fa53		       00		      .byte.b	0
   3325  fa53					      repend
   3326  fa54		       00		      .byte.b	0
   3325  fa54					      repend
   3326  fa55		       00		      .byte.b	0
   3325  fa55					      repend
   3326  fa56		       00		      .byte.b	0
   3325  fa56					      repend
   3326  fa57		       00		      .byte.b	0
   3327  fa58					      repend
   3328  fa58					      endif
   3329  fa58					      endif
   3330  fa58				   playfieldcolorandheight
   3331  fa58		       0c 38 00 00	      .byte.b	12, $38,0,0
   3332  fa5c		       08 2a 00 00	      .byte.b	8, $2A,0,0
   3333  fa60		       08 1e 00 00	      .byte.b	8, $1E,0,0
   3334  fa64		       08 ba 00 00	      .byte.b	8, $BA,0,0
   3335  fa68		       08 8a 00 00	      .byte.b	8, $8A,0,0
   3336  fa6c		       08 58 00 00	      .byte.b	8, $58,0,0
   3337  fa70		       08 38 00 00	      .byte.b	8, $38,0,0
   3338  fa74		       08 2a 00 00	      .byte.b	8, $2A,0,0
   3339  fa78		       0c 1e 00 00	      .byte.b	12, $1E,0,0
   3340  fa7c		       04 ba 00 00	      .byte.b	4, $BA,0,0
   3341  fa80				  -	      if	(<*) > (<(*+11))
   3342  fa80				  -	      repeat	($100-<*)
   3343  fa80				  -	      .byte	0
   3344  fa80				  -	      repend
   3345  fa80					      endif
   3346  fa80				   playerL064_0
   3347  fa80		       38		      .byte.b	%00111000
   3348  fa81		       38		      .byte.b	%00111000
   3349  fa82		       38		      .byte.b	%00111000
   3350  fa83		       38		      .byte.b	%00111000
   3351  fa84		       38		      .byte.b	%00111000
   3352  fa85		       38		      .byte.b	%00111000
   3353  fa86		       38		      .byte.b	%00111000
   3354  fa87		       38		      .byte.b	%00111000
   3355  fa88		       38		      .byte.b	%00111000
   3356  fa89		       38		      .byte.b	%00111000
   3357  fa8a		       38		      .byte.b	%00111000
   3358  fa8b		       38		      .byte.b	%00111000
   3359  fa8c				  -	      if	(<*) > (<(*+11))
   3360  fa8c				  -	      repeat	($100-<*)
   3361  fa8c				  -	      .byte	0
   3362  fa8c				  -	      repend
   3363  fa8c					      endif
   3364  fa8c				   playerL065_1
   3365  fa8c		       38		      .byte.b	%00111000
   3366  fa8d		       38		      .byte.b	%00111000
   3367  fa8e		       38		      .byte.b	%00111000
   3368  fa8f		       38		      .byte.b	%00111000
   3369  fa90		       38		      .byte.b	%00111000
   3370  fa91		       38		      .byte.b	%00111000
   3371  fa92		       38		      .byte.b	%00111000
   3372  fa93		       38		      .byte.b	%00111000
   3373  fa94		       38		      .byte.b	%00111000
   3374  fa95		       38		      .byte.b	%00111000
   3375  fa96		       38		      .byte.b	%00111000
   3376  fa97		       38		      .byte.b	%00111000
   3377  fa98				  -	      if	(<*) > (<(*+8))
   3378  fa98				  -	      repeat	($100-<*)
   3379  fa98				  -	      .byte	0
   3380  fa98				  -	      repend
   3381  fa98					      endif
   3382  fa98				   lives__L067
   3383  fa98		       ff		      .byte.b	%11111111
   3384  fa99		       81		      .byte.b	%10000001
   3385  fa9a		       bd		      .byte.b	%10111101
   3386  fa9b		       a5		      .byte.b	%10100101
   3387  fa9c		       a5		      .byte.b	%10100101
   3388  fa9d		       bd		      .byte.b	%10111101
   3389  fa9e		       81		      .byte.b	%10000001
   3390  fa9f		       ff		      .byte.b	%11111111
   3391  faa0					      if	ECHOFIRST
      1276 bytes of ROM space left
   3392  faa0					      echo	"    ",[(scoretable - *)]d , "bytes of ROM space left")
   3393  faa0					      endif
   3394  faa0		       00 01	   ECHOFIRST  =	1
   3395  faa0
   3396  faa0
   3397  faa0
   3398  faa0							; Provided under the CC0 license. See the included LICENSE.txt for details.
   3399  faa0							; font equates
   3400  faa0		       00 01	   .21stcentury =	1
   3401  faa0		       00 02	   alarmclock =	2
   3402  faa0		       00 03	   handwritten =	3
   3403  faa0		       00 04	   interrupted =	4
   3404  faa0		       00 05	   retroputer =	5
   3405  faa0		       00 06	   whimsey    =	6
   3406  faa0		       00 07	   tiny       =	7
   3407  faa0		       00 08	   hex	      =	8
   3408  faa0
   3409  faa0							; feel free to modify the score graphics - just keep each digit 8 high
   3410  faa0							; and keep the conditional compilation stuff intact
   3411  faa0					      ifnconst	PXE
   3412  faa0				  -	      ifconst	ROM2k
   3413  faa0				  -	      ORG	$F7AC-8
   3414  faa0					      else
   3415  faa0				  -	      ifconst	bankswitch
   3416  faa0				  -	      if	bankswitch == 8
   3417  faa0				  -	      ORG	$2F94-bscode_length
   3418  faa0				  -	      RORG	$FF94-bscode_length
   3419  faa0				  -	      endif
   3420  faa0				  -	      if	bankswitch == 16
   3421  faa0				  -	      ORG	$4F94-bscode_length
   3422  faa0				  -	      RORG	$FF94-bscode_length
   3423  faa0				  -	      endif
   3424  faa0				  -	      if	bankswitch == 32
   3425  faa0				  -	      ORG	$8F94-bscode_length
   3426  faa0				  -	      RORG	$FF94-bscode_length
   3427  faa0				  -	      endif
   3428  faa0				  -	      if	bankswitch == 64
   3429  faa0				  -	      ORG	$10F80-bscode_length
   3430  faa0				  -	      RORG	$1FF80-bscode_length
   3431  faa0				  -	      endif
   3432  faa0					      else
   3433  ff9c					      ORG	$FF9C
   3434  ff9c					      endif
   3435  ff9c					      endif
   3436  ff9c
   3437  ff9c
   3438  ff9c				  -	      ifconst	font
   3439  ff9c				  -	      if	font == hex
   3440  ff9c				  -	      ORG	. - 48
   3441  ff9c				  -	      endif
   3442  ff9c					      endif
   3443  ff9c					      endif
   3444  ff9c
   3445  ff9c				   scoretable
   3446  ff9c
   3447  ff9c				  -	      ifconst	font
   3448  ff9c				  -	      if	font == .21stcentury
   3449  ff9c				  -	      include	"score_graphics.asm.21stcentury"
   3450  ff9c				  -	      endif
   3451  ff9c				  -	      if	font == alarmclock
   3452  ff9c				  -	      include	"score_graphics.asm.alarmclock"
   3453  ff9c				  -	      endif
   3454  ff9c				  -	      if	font == handwritten
   3455  ff9c				  -	      include	"score_graphics.asm.handwritten"
   3456  ff9c				  -	      endif
   3457  ff9c				  -	      if	font == interrupted
   3458  ff9c				  -	      include	"score_graphics.asm.interrupted"
   3459  ff9c				  -	      endif
   3460  ff9c				  -	      if	font == retroputer
   3461  ff9c				  -	      include	"score_graphics.asm.retroputer"
   3462  ff9c				  -	      endif
   3463  ff9c				  -	      if	font == whimsey
   3464  ff9c				  -	      include	"score_graphics.asm.whimsey"
   3465  ff9c				  -	      endif
   3466  ff9c				  -	      if	font == tiny
   3467  ff9c				  -	      include	"score_graphics.asm.tiny"
   3468  ff9c				  -	      endif
   3469  ff9c				  -	      if	font == hex
   3470  ff9c				  -	      include	"score_graphics.asm.hex"
   3471  ff9c				  -	      endif
   3472  ff9c					      else		; default font
   3473  ff9c
   3474  ff9c		       3c		      .byte.b	%00111100
   3475  ff9d		       66		      .byte.b	%01100110
   3476  ff9e		       66		      .byte.b	%01100110
   3477  ff9f		       66		      .byte.b	%01100110
   3478  ffa0		       66		      .byte.b	%01100110
   3479  ffa1		       66		      .byte.b	%01100110
   3480  ffa2		       66		      .byte.b	%01100110
   3481  ffa3		       3c		      .byte.b	%00111100
   3482  ffa4
   3483  ffa4		       7e		      .byte.b	%01111110
   3484  ffa5		       18		      .byte.b	%00011000
   3485  ffa6		       18		      .byte.b	%00011000
   3486  ffa7		       18		      .byte.b	%00011000
   3487  ffa8		       18		      .byte.b	%00011000
   3488  ffa9		       38		      .byte.b	%00111000
   3489  ffaa		       18		      .byte.b	%00011000
   3490  ffab		       08		      .byte.b	%00001000
   3491  ffac
   3492  ffac		       7e		      .byte.b	%01111110
   3493  ffad		       60		      .byte.b	%01100000
   3494  ffae		       60		      .byte.b	%01100000
   3495  ffaf		       3c		      .byte.b	%00111100
   3496  ffb0		       06		      .byte.b	%00000110
   3497  ffb1		       06		      .byte.b	%00000110
   3498  ffb2		       46		      .byte.b	%01000110
   3499  ffb3		       3c		      .byte.b	%00111100
   3500  ffb4
   3501  ffb4		       3c		      .byte.b	%00111100
   3502  ffb5		       46		      .byte.b	%01000110
   3503  ffb6		       06		      .byte.b	%00000110
   3504  ffb7		       06		      .byte.b	%00000110
   3505  ffb8		       1c		      .byte.b	%00011100
   3506  ffb9		       06		      .byte.b	%00000110
   3507  ffba		       46		      .byte.b	%01000110
   3508  ffbb		       3c		      .byte.b	%00111100
   3509  ffbc
   3510  ffbc		       0c		      .byte.b	%00001100
   3511  ffbd		       0c		      .byte.b	%00001100
   3512  ffbe		       7e		      .byte.b	%01111110
   3513  ffbf		       4c		      .byte.b	%01001100
   3514  ffc0		       4c		      .byte.b	%01001100
   3515  ffc1		       2c		      .byte.b	%00101100
   3516  ffc2		       1c		      .byte.b	%00011100
   3517  ffc3		       0c		      .byte.b	%00001100
   3518  ffc4
   3519  ffc4		       3c		      .byte.b	%00111100
   3520  ffc5		       46		      .byte.b	%01000110
   3521  ffc6		       06		      .byte.b	%00000110
   3522  ffc7		       06		      .byte.b	%00000110
   3523  ffc8		       3c		      .byte.b	%00111100
   3524  ffc9		       60		      .byte.b	%01100000
   3525  ffca		       60		      .byte.b	%01100000
   3526  ffcb		       7e		      .byte.b	%01111110
   3527  ffcc
   3528  ffcc		       3c		      .byte.b	%00111100
   3529  ffcd		       66		      .byte.b	%01100110
   3530  ffce		       66		      .byte.b	%01100110
   3531  ffcf		       66		      .byte.b	%01100110
   3532  ffd0		       7c		      .byte.b	%01111100
   3533  ffd1		       60		      .byte.b	%01100000
   3534  ffd2		       62		      .byte.b	%01100010
   3535  ffd3		       3c		      .byte.b	%00111100
   3536  ffd4
   3537  ffd4		       30		      .byte.b	%00110000
   3538  ffd5		       30		      .byte.b	%00110000
   3539  ffd6		       30		      .byte.b	%00110000
   3540  ffd7		       18		      .byte.b	%00011000
   3541  ffd8		       0c		      .byte.b	%00001100
   3542  ffd9		       06		      .byte.b	%00000110
   3543  ffda		       42		      .byte.b	%01000010
   3544  ffdb		       3e		      .byte.b	%00111110
   3545  ffdc
   3546  ffdc		       3c		      .byte.b	%00111100
   3547  ffdd		       66		      .byte.b	%01100110
   3548  ffde		       66		      .byte.b	%01100110
   3549  ffdf		       66		      .byte.b	%01100110
   3550  ffe0		       3c		      .byte.b	%00111100
   3551  ffe1		       66		      .byte.b	%01100110
   3552  ffe2		       66		      .byte.b	%01100110
   3553  ffe3		       3c		      .byte.b	%00111100
   3554  ffe4
   3555  ffe4		       3c		      .byte.b	%00111100
   3556  ffe5		       46		      .byte.b	%01000110
   3557  ffe6		       06		      .byte.b	%00000110
   3558  ffe7		       3e		      .byte.b	%00111110
   3559  ffe8		       66		      .byte.b	%01100110
   3560  ffe9		       66		      .byte.b	%01100110
   3561  ffea		       66		      .byte.b	%01100110
   3562  ffeb		       3c		      .byte.b	%00111100
   3563  ffec
   3564  ffec					      ifnconst	DPC_kernel_options
   3565  ffec
   3566  ffec		       00		      .byte.b	%00000000
   3567  ffed		       00		      .byte.b	%00000000
   3568  ffee		       00		      .byte.b	%00000000
   3569  ffef		       00		      .byte.b	%00000000
   3570  fff0		       00		      .byte.b	%00000000
   3571  fff1		       00		      .byte.b	%00000000
   3572  fff2		       00		      .byte.b	%00000000
   3573  fff3		       00		      .byte.b	%00000000
   3574  fff4
   3575  fff4					      endif
   3576  fff4
   3577  fff4					      endif
   3578  fff4
   3579  fff4					      ifnconst	PXE
   3580  fff4				  -	      ifconst	ROM2k
   3581  fff4				  -	      ORG	$F7FC
   3582  fff4					      else
   3583  fff4				  -	      ifconst	bankswitch
   3584  fff4				  -	      if	bankswitch == 8
   3585  fff4				  -	      ORG	$2FF4-bscode_length
   3586  fff4				  -	      RORG	$FFF4-bscode_length
   3587  fff4				  -	      endif
   3588  fff4				  -	      if	bankswitch == 16
   3589  fff4				  -	      ORG	$4FF4-bscode_length
   3590  fff4				  -	      RORG	$FFF4-bscode_length
   3591  fff4				  -	      endif
   3592  fff4				  -	      if	bankswitch == 32
   3593  fff4				  -	      ORG	$8FF4-bscode_length
   3594  fff4				  -	      RORG	$FFF4-bscode_length
   3595  fff4				  -	      endif
   3596  fff4				  -	      if	bankswitch == 64
   3597  fff4				  -	      ORG	$10FE0-bscode_length
   3598  fff4				  -	      RORG	$1FFE0-bscode_length
   3599  fff4				  -	      endif
   3600  fff4					      else
   3601  fffc					      ORG	$FFFC
   3602  fffc					      endif
   3603  fffc					      endif
   3604  fffc					      endif
   3605  fffc							; Provided under the CC0 license. See the included LICENSE.txt for details.
   3606  fffc
   3607  fffc				  -	      ifconst	bankswitch
   3608  fffc				  -	      if	bankswitch == 8
   3609  fffc				  -	      ORG	$2FFC
   3610  fffc				  -	      RORG	$FFFC
   3611  fffc				  -	      endif
   3612  fffc				  -	      if	bankswitch == 16
   3613  fffc				  -	      ORG	$4FFC
   3614  fffc				  -	      RORG	$FFFC
   3615  fffc				  -	      endif
   3616  fffc				  -	      if	bankswitch == 32
   3617  fffc				  -	      ORG	$8FFC
   3618  fffc				  -	      RORG	$FFFC
   3619  fffc				  -	      endif
   3620  fffc				  -	      if	bankswitch == 64
   3621  fffc				  -	      ORG	$10FF0
   3622  fffc				  -	      RORG	$1FFF0
   3623  fffc				  -	      lda	$ffe0	; we use wasted space to assist stella with EF format auto-detection
   3624  fffc				  -	      ORG	$10FF8
   3625  fffc				  -	      RORG	$1FFF8
   3626  fffc				  -	      ifconst	superchip
   3627  fffc				  -	      .byte	"E","F","S","C"
   3628  fffc				  -	      else
   3629  fffc				  -	      .byte	"E","F","E","F"
   3630  fffc				  -	      endif
   3631  fffc				  -	      ORG	$10FFC
   3632  fffc				  -	      RORG	$1FFFC
   3633  fffc				  -	      endif
   3634  fffc					      else
   3635  fffc				  -	      ifconst	ROM2k
   3636  fffc				  -	      ORG	$F7FC
   3637  fffc					      else
   3638  fffc					      ORG	$FFFC
   3639  fffc					      endif
   3640  fffc					      endif
   3641  fffc		       00 f0		      .word.w	(start & $ffff)
   3642  fffe		       00 f0		      .word.w	(start & $ffff)
